
PickNPlace.elf:     file format elf32-littlearm

Sections:
Idx Name          Size      VMA       LMA       File off  Algn
  0 .text         00002aac  00000000  00000000  00010000  2**2
                  CONTENTS, ALLOC, LOAD, READONLY, CODE
  1 .relocate     00000028  20000000  00002aac  00020000  2**2
                  CONTENTS, ALLOC, LOAD, DATA
  2 .bss          00000100  20000028  00002ad4  00020028  2**2
                  ALLOC
  3 .stack        00002000  20000128  00002bd4  00020028  2**0
                  ALLOC
  4 .ARM.attributes 00000028  00000000  00000000  00020028  2**0
                  CONTENTS, READONLY
  5 .comment      00000059  00000000  00000000  00020050  2**0
                  CONTENTS, READONLY
  6 .debug_info   000367bc  00000000  00000000  000200a9  2**0
                  CONTENTS, READONLY, DEBUGGING
  7 .debug_abbrev 00004893  00000000  00000000  00056865  2**0
                  CONTENTS, READONLY, DEBUGGING
  8 .debug_loc    00007fdd  00000000  00000000  0005b0f8  2**0
                  CONTENTS, READONLY, DEBUGGING
  9 .debug_aranges 00000558  00000000  00000000  000630d5  2**0
                  CONTENTS, READONLY, DEBUGGING
 10 .debug_ranges 00000ab8  00000000  00000000  0006362d  2**0
                  CONTENTS, READONLY, DEBUGGING
 11 .debug_macro  0001624e  00000000  00000000  000640e5  2**0
                  CONTENTS, READONLY, DEBUGGING
 12 .debug_line   0000f726  00000000  00000000  0007a333  2**0
                  CONTENTS, READONLY, DEBUGGING
 13 .debug_str    000651c6  00000000  00000000  00089a59  2**0
                  CONTENTS, READONLY, DEBUGGING
 14 .debug_frame  00000d60  00000000  00000000  000eec20  2**2
                  CONTENTS, READONLY, DEBUGGING

Disassembly of section .text:

00000000 <exception_table>:
       0:	28 21 00 20 fd 20 00 00 f9 20 00 00 f9 20 00 00     (!. . ... ... ..
	...
      2c:	f9 20 00 00 00 00 00 00 00 00 00 00 f9 20 00 00     . ........... ..
      3c:	f9 20 00 00 f9 20 00 00 f9 20 00 00 f9 20 00 00     . ... ... ... ..
      4c:	f9 20 00 00 f9 20 00 00 f9 20 00 00 f9 20 00 00     . ... ... ... ..
      5c:	01 0a 00 00 11 0a 00 00 21 0a 00 00 31 0a 00 00     ........!...1...
      6c:	41 0a 00 00 51 0a 00 00 f9 20 00 00 f9 20 00 00     A...Q.... ... ..
      7c:	f9 20 00 00 f9 20 00 00 f9 20 00 00 f9 20 00 00     . ... ... ... ..
      8c:	f9 20 00 00 f9 20 00 00 f9 20 00 00 f9 20 00 00     . ... ... ... ..
      9c:	f9 20 00 00 f9 20 00 00                             . ... ..

000000a4 <__do_global_dtors_aux>:
      a4:	b510      	push	{r4, lr}
      a6:	4c06      	ldr	r4, [pc, #24]	; (c0 <__do_global_dtors_aux+0x1c>)
      a8:	7823      	ldrb	r3, [r4, #0]
      aa:	2b00      	cmp	r3, #0
      ac:	d107      	bne.n	be <__do_global_dtors_aux+0x1a>
      ae:	4b05      	ldr	r3, [pc, #20]	; (c4 <__do_global_dtors_aux+0x20>)
      b0:	2b00      	cmp	r3, #0
      b2:	d002      	beq.n	ba <__do_global_dtors_aux+0x16>
      b4:	4804      	ldr	r0, [pc, #16]	; (c8 <__do_global_dtors_aux+0x24>)
      b6:	e000      	b.n	ba <__do_global_dtors_aux+0x16>
      b8:	bf00      	nop
      ba:	2301      	movs	r3, #1
      bc:	7023      	strb	r3, [r4, #0]
      be:	bd10      	pop	{r4, pc}
      c0:	20000028 	.word	0x20000028
      c4:	00000000 	.word	0x00000000
      c8:	00002aac 	.word	0x00002aac

000000cc <frame_dummy>:
      cc:	4b08      	ldr	r3, [pc, #32]	; (f0 <frame_dummy+0x24>)
      ce:	b510      	push	{r4, lr}
      d0:	2b00      	cmp	r3, #0
      d2:	d003      	beq.n	dc <frame_dummy+0x10>
      d4:	4907      	ldr	r1, [pc, #28]	; (f4 <frame_dummy+0x28>)
      d6:	4808      	ldr	r0, [pc, #32]	; (f8 <frame_dummy+0x2c>)
      d8:	e000      	b.n	dc <frame_dummy+0x10>
      da:	bf00      	nop
      dc:	4807      	ldr	r0, [pc, #28]	; (fc <frame_dummy+0x30>)
      de:	6803      	ldr	r3, [r0, #0]
      e0:	2b00      	cmp	r3, #0
      e2:	d100      	bne.n	e6 <frame_dummy+0x1a>
      e4:	bd10      	pop	{r4, pc}
      e6:	4b06      	ldr	r3, [pc, #24]	; (100 <frame_dummy+0x34>)
      e8:	2b00      	cmp	r3, #0
      ea:	d0fb      	beq.n	e4 <frame_dummy+0x18>
      ec:	4798      	blx	r3
      ee:	e7f9      	b.n	e4 <frame_dummy+0x18>
      f0:	00000000 	.word	0x00000000
      f4:	2000002c 	.word	0x2000002c
      f8:	00002aac 	.word	0x00002aac
      fc:	00002aac 	.word	0x00002aac
     100:	00000000 	.word	0x00000000

00000104 <delay_init>:
 *
 * This must be called during start up to initialize the delay routine with
 * the current used main clock. It must run any time the main CPU clock is changed.
 */
void delay_init(void)
{
     104:	b570      	push	{r4, r5, r6, lr}
	cycles_per_ms = system_gclk_gen_get_hz(0);
     106:	2000      	movs	r0, #0
     108:	4b08      	ldr	r3, [pc, #32]	; (12c <delay_init+0x28>)
     10a:	4798      	blx	r3
     10c:	0005      	movs	r5, r0
	cycles_per_ms /= 1000;
     10e:	4c08      	ldr	r4, [pc, #32]	; (130 <delay_init+0x2c>)
     110:	21fa      	movs	r1, #250	; 0xfa
     112:	0089      	lsls	r1, r1, #2
     114:	47a0      	blx	r4
     116:	4b07      	ldr	r3, [pc, #28]	; (134 <delay_init+0x30>)
     118:	6018      	str	r0, [r3, #0]
	cycles_per_us = cycles_per_ms / 1000;
     11a:	4907      	ldr	r1, [pc, #28]	; (138 <delay_init+0x34>)
     11c:	0028      	movs	r0, r5
     11e:	47a0      	blx	r4
     120:	4b06      	ldr	r3, [pc, #24]	; (13c <delay_init+0x38>)
     122:	6018      	str	r0, [r3, #0]

	SysTick->CTRL = SysTick_CTRL_CLKSOURCE_Msk | SysTick_CTRL_ENABLE_Msk;
     124:	2205      	movs	r2, #5
     126:	4b06      	ldr	r3, [pc, #24]	; (140 <delay_init+0x3c>)
     128:	601a      	str	r2, [r3, #0]
}
     12a:	bd70      	pop	{r4, r5, r6, pc}
     12c:	00001e89 	.word	0x00001e89
     130:	000024a9 	.word	0x000024a9
     134:	20000000 	.word	0x20000000
     138:	000f4240 	.word	0x000f4240
     13c:	20000004 	.word	0x20000004
     140:	e000e010 	.word	0xe000e010

00000144 <delay_cycles_us>:
 *
 * \param n  Number of microseconds to wait
 */
void delay_cycles_us(
		uint32_t n)
{
     144:	b530      	push	{r4, r5, lr}
	while (n--) {
		/* Devide up to blocks of 10u */
		delay_cycles(cycles_per_us);
     146:	4b08      	ldr	r3, [pc, #32]	; (168 <delay_cycles_us+0x24>)
     148:	681c      	ldr	r4, [r3, #0]
 */
static inline void delay_cycles(
		const uint32_t n)
{
	if (n > 0) {
		SysTick->LOAD = n;
     14a:	4a08      	ldr	r2, [pc, #32]	; (16c <delay_cycles_us+0x28>)
		SysTick->VAL = 0;
     14c:	2500      	movs	r5, #0

		while (!(SysTick->CTRL & SysTick_CTRL_COUNTFLAG_Msk)) {
     14e:	2180      	movs	r1, #128	; 0x80
     150:	0249      	lsls	r1, r1, #9
	while (n--) {
     152:	3801      	subs	r0, #1
     154:	d307      	bcc.n	166 <delay_cycles_us+0x22>
	if (n > 0) {
     156:	2c00      	cmp	r4, #0
     158:	d0fb      	beq.n	152 <delay_cycles_us+0xe>
		SysTick->LOAD = n;
     15a:	6054      	str	r4, [r2, #4]
		SysTick->VAL = 0;
     15c:	6095      	str	r5, [r2, #8]
		while (!(SysTick->CTRL & SysTick_CTRL_COUNTFLAG_Msk)) {
     15e:	6813      	ldr	r3, [r2, #0]
     160:	420b      	tst	r3, r1
     162:	d0fc      	beq.n	15e <delay_cycles_us+0x1a>
     164:	e7f5      	b.n	152 <delay_cycles_us+0xe>
	}
}
     166:	bd30      	pop	{r4, r5, pc}
     168:	20000004 	.word	0x20000004
     16c:	e000e010 	.word	0xe000e010

00000170 <delay_cycles_ms>:
 *
 * \param n  Number of milliseconds to wait
 */
void delay_cycles_ms(
		uint32_t n)
{
     170:	b530      	push	{r4, r5, lr}
	while (n--) {
		/* Devide up to blocks of 1ms */
		delay_cycles(cycles_per_ms);
     172:	4b08      	ldr	r3, [pc, #32]	; (194 <delay_cycles_ms+0x24>)
     174:	681c      	ldr	r4, [r3, #0]
		SysTick->LOAD = n;
     176:	4a08      	ldr	r2, [pc, #32]	; (198 <delay_cycles_ms+0x28>)
		SysTick->VAL = 0;
     178:	2500      	movs	r5, #0
		while (!(SysTick->CTRL & SysTick_CTRL_COUNTFLAG_Msk)) {
     17a:	2180      	movs	r1, #128	; 0x80
     17c:	0249      	lsls	r1, r1, #9
	while (n--) {
     17e:	3801      	subs	r0, #1
     180:	d307      	bcc.n	192 <delay_cycles_ms+0x22>
	if (n > 0) {
     182:	2c00      	cmp	r4, #0
     184:	d0fb      	beq.n	17e <delay_cycles_ms+0xe>
		SysTick->LOAD = n;
     186:	6054      	str	r4, [r2, #4]
		SysTick->VAL = 0;
     188:	6095      	str	r5, [r2, #8]
		while (!(SysTick->CTRL & SysTick_CTRL_COUNTFLAG_Msk)) {
     18a:	6813      	ldr	r3, [r2, #0]
     18c:	420b      	tst	r3, r1
     18e:	d0fc      	beq.n	18a <delay_cycles_ms+0x1a>
     190:	e7f5      	b.n	17e <delay_cycles_ms+0xe>
	}
}
     192:	bd30      	pop	{r4, r5, pc}
     194:	20000000 	.word	0x20000000
     198:	e000e010 	.word	0xe000e010

0000019c <adc_get_config_defaults>:
 *
 * \param[out] config  Pointer to configuration struct to initialize to
 *                     default values
 */
void adc_get_config_defaults(struct adc_config *const config)
{
     19c:	b510      	push	{r4, lr}
	Assert(config);
	config->clock_source                  = GCLK_GENERATOR_0;
     19e:	2200      	movs	r2, #0
     1a0:	2300      	movs	r3, #0
     1a2:	7002      	strb	r2, [r0, #0]
	config->reference                     = ADC_REFERENCE_INT1V;
     1a4:	7042      	strb	r2, [r0, #1]
	config->clock_prescaler               = ADC_CLOCK_PRESCALER_DIV4;
     1a6:	2100      	movs	r1, #0
     1a8:	8042      	strh	r2, [r0, #2]
	config->resolution                    = ADC_RESOLUTION_12BIT;
     1aa:	7101      	strb	r1, [r0, #4]
	config->window.window_mode            = ADC_WINDOW_MODE_DISABLE;
     1ac:	7603      	strb	r3, [r0, #24]
	config->window.window_upper_value     = 0;
     1ae:	6202      	str	r2, [r0, #32]
	config->window.window_lower_value     = 0;
     1b0:	61c2      	str	r2, [r0, #28]
	config->gain_factor                   = ADC_GAIN_FACTOR_1X;
     1b2:	6082      	str	r2, [r0, #8]
#if SAMR21
	config->positive_input                = ADC_POSITIVE_INPUT_PIN6 ;
#else
 	config->positive_input                = ADC_POSITIVE_INPUT_PIN0 ;
     1b4:	7303      	strb	r3, [r0, #12]
#endif
	config->negative_input                = ADC_NEGATIVE_INPUT_GND ;
     1b6:	24c0      	movs	r4, #192	; 0xc0
     1b8:	0164      	lsls	r4, r4, #5
     1ba:	81c4      	strh	r4, [r0, #14]
	config->accumulate_samples            = ADC_ACCUMULATE_DISABLE;
     1bc:	7403      	strb	r3, [r0, #16]
	config->divide_result                 = ADC_DIVIDE_RESULT_DISABLE;
     1be:	7443      	strb	r3, [r0, #17]
	config->left_adjust                   = false;
     1c0:	7483      	strb	r3, [r0, #18]
	config->differential_mode             = false;
     1c2:	74c3      	strb	r3, [r0, #19]
	config->freerunning                   = false;
     1c4:	7503      	strb	r3, [r0, #20]
	config->event_action                  = ADC_EVENT_ACTION_DISABLED;
     1c6:	242a      	movs	r4, #42	; 0x2a
     1c8:	5503      	strb	r3, [r0, r4]
	config->run_in_standby                = false;
     1ca:	7543      	strb	r3, [r0, #21]
	config->reference_compensation_enable = false;
     1cc:	7583      	strb	r3, [r0, #22]
	config->correction.correction_enable  = false;
     1ce:	3c06      	subs	r4, #6
     1d0:	5503      	strb	r3, [r0, r4]
	config->correction.gain_correction    = ADC_GAINCORR_RESETVALUE;
     1d2:	84c2      	strh	r2, [r0, #38]	; 0x26
	config->correction.offset_correction  = ADC_OFFSETCORR_RESETVALUE;
     1d4:	8502      	strh	r2, [r0, #40]	; 0x28
	config->sample_length                 = 0;
     1d6:	75c1      	strb	r1, [r0, #23]
	config->pin_scan.offset_start_scan    = 0;
     1d8:	232b      	movs	r3, #43	; 0x2b
     1da:	54c1      	strb	r1, [r0, r3]
	config->pin_scan.inputs_to_scan       = 0;
     1dc:	3301      	adds	r3, #1
     1de:	54c1      	strb	r1, [r0, r3]
}
     1e0:	bd10      	pop	{r4, pc}
	...

000001e4 <adc_init>:
 */
enum status_code adc_init(
		struct adc_module *const module_inst,
		Adc *hw,
		struct adc_config *config)
{
     1e4:	b5f0      	push	{r4, r5, r6, r7, lr}
     1e6:	46de      	mov	lr, fp
     1e8:	4657      	mov	r7, sl
     1ea:	464e      	mov	r6, r9
     1ec:	4645      	mov	r5, r8
     1ee:	b5e0      	push	{r5, r6, r7, lr}
     1f0:	b097      	sub	sp, #92	; 0x5c
     1f2:	0007      	movs	r7, r0
     1f4:	0016      	movs	r6, r2
	Assert(module_inst);
	Assert(hw);
	Assert(config);

	/* Associate the software module instance with the hardware module */
	module_inst->hw = hw;
     1f6:	6001      	str	r1, [r0, #0]
		case SYSTEM_CLOCK_APB_APBB:
			PM->APBBMASK.reg |= mask;
			break;

		case SYSTEM_CLOCK_APB_APBC:
			PM->APBCMASK.reg |= mask;
     1f8:	4ac9      	ldr	r2, [pc, #804]	; (520 <adc_init+0x33c>)
     1fa:	6a10      	ldr	r0, [r2, #32]
     1fc:	2380      	movs	r3, #128	; 0x80
     1fe:	025b      	lsls	r3, r3, #9
     200:	4303      	orrs	r3, r0
     202:	6213      	str	r3, [r2, #32]

	/* Turn on the digital interface clock */
	system_apb_clock_set_mask(SYSTEM_CLOCK_APB_APBC, PM_APBCMASK_ADC);

	if (hw->CTRLA.reg & ADC_CTRLA_SWRST) {
     204:	780b      	ldrb	r3, [r1, #0]
		/* We are in the middle of a reset. Abort. */
		return STATUS_BUSY;
     206:	2005      	movs	r0, #5
	if (hw->CTRLA.reg & ADC_CTRLA_SWRST) {
     208:	07db      	lsls	r3, r3, #31
     20a:	d506      	bpl.n	21a <adc_init+0x36>
	}
#endif

	/* Write configuration to module */
	return _adc_set_config(module_inst, config);
}
     20c:	b017      	add	sp, #92	; 0x5c
     20e:	bc3c      	pop	{r2, r3, r4, r5}
     210:	4690      	mov	r8, r2
     212:	4699      	mov	r9, r3
     214:	46a2      	mov	sl, r4
     216:	46ab      	mov	fp, r5
     218:	bdf0      	pop	{r4, r5, r6, r7, pc}
	if (hw->CTRLA.reg & ADC_CTRLA_ENABLE) {
     21a:	780b      	ldrb	r3, [r1, #0]
		return STATUS_ERR_DENIED;
     21c:	3017      	adds	r0, #23
	if (hw->CTRLA.reg & ADC_CTRLA_ENABLE) {
     21e:	079b      	lsls	r3, r3, #30
     220:	d4f4      	bmi.n	20c <adc_init+0x28>
	module_inst->reference = config->reference;
     222:	7873      	ldrb	r3, [r6, #1]
     224:	713b      	strb	r3, [r7, #4]
	if (module_inst->reference == ADC_REFERENCE_INT1V) {
     226:	2b00      	cmp	r3, #0
     228:	d104      	bne.n	234 <adc_init+0x50>
		case SYSTEM_VOLTAGE_REFERENCE_TEMPSENSE:
			SYSCTRL->VREF.reg |= SYSCTRL_VREF_TSEN;
			break;

		case SYSTEM_VOLTAGE_REFERENCE_BANDGAP:
			SYSCTRL->VREF.reg |= SYSCTRL_VREF_BGOUTEN;
     22a:	4abe      	ldr	r2, [pc, #760]	; (524 <adc_init+0x340>)
     22c:	6c13      	ldr	r3, [r2, #64]	; 0x40
     22e:	2104      	movs	r1, #4
     230:	430b      	orrs	r3, r1
     232:	6413      	str	r3, [r2, #64]	; 0x40
	uint8_t revision_num = ((REG_DSU_DID & DSU_DID_REVISION_Msk) >> DSU_DID_REVISION_Pos);
     234:	4bbc      	ldr	r3, [pc, #752]	; (528 <adc_init+0x344>)
     236:	681b      	ldr	r3, [r3, #0]
     238:	051b      	lsls	r3, r3, #20
     23a:	0f1b      	lsrs	r3, r3, #28
     23c:	4698      	mov	r8, r3
	Adc *const adc_module = module_inst->hw;
     23e:	683b      	ldr	r3, [r7, #0]
     240:	469b      	mov	fp, r3
	gclk_chan_conf.source_generator = config->clock_source;
     242:	7833      	ldrb	r3, [r6, #0]
     244:	466a      	mov	r2, sp
     246:	7013      	strb	r3, [r2, #0]
	system_gclk_chan_set_config(ADC_GCLK_ID, &gclk_chan_conf);
     248:	4669      	mov	r1, sp
     24a:	2017      	movs	r0, #23
     24c:	4bb7      	ldr	r3, [pc, #732]	; (52c <adc_init+0x348>)
     24e:	4798      	blx	r3
	system_gclk_chan_enable(ADC_GCLK_ID);
     250:	2017      	movs	r0, #23
     252:	4bb7      	ldr	r3, [pc, #732]	; (530 <adc_init+0x34c>)
     254:	4798      	blx	r3
	if (config->pin_scan.inputs_to_scan != 0) {
     256:	232c      	movs	r3, #44	; 0x2c
     258:	5cf2      	ldrb	r2, [r6, r3]
     25a:	2a00      	cmp	r2, #0
     25c:	d05a      	beq.n	314 <adc_init+0x130>
		uint8_t offset = config->pin_scan.offset_start_scan;
     25e:	3b01      	subs	r3, #1
     260:	5cf5      	ldrb	r5, [r6, r3]
		uint8_t start_pin =
     262:	7b33      	ldrb	r3, [r6, #12]
     264:	18eb      	adds	r3, r5, r3
     266:	b2db      	uxtb	r3, r3
		uint8_t end_pin =
     268:	18d1      	adds	r1, r2, r3
		while (start_pin < end_pin) {
     26a:	b2c9      	uxtb	r1, r1
     26c:	428b      	cmp	r3, r1
     26e:	d227      	bcs.n	2c0 <adc_init+0xdc>
     270:	1952      	adds	r2, r2, r5
     272:	b2d3      	uxtb	r3, r2
     274:	4699      	mov	r9, r3
	const uint32_t pinmapping[] = {
     276:	4baf      	ldr	r3, [pc, #700]	; (534 <adc_init+0x350>)
     278:	469a      	mov	sl, r3
		system_pinmux_pin_set_config(pin_map_result, &config);
     27a:	0033      	movs	r3, r6
     27c:	464e      	mov	r6, r9
     27e:	46b9      	mov	r9, r7
     280:	001f      	movs	r7, r3
     282:	e003      	b.n	28c <adc_init+0xa8>
			offset++;
     284:	3501      	adds	r5, #1
     286:	b2ed      	uxtb	r5, r5
		while (start_pin < end_pin) {
     288:	42ae      	cmp	r6, r5
     28a:	d017      	beq.n	2bc <adc_init+0xd8>
			_adc_configure_ain_pin((offset % 16)+(uint8_t)config->positive_input);
     28c:	240f      	movs	r4, #15
     28e:	402c      	ands	r4, r5
     290:	7b3b      	ldrb	r3, [r7, #12]
     292:	18e4      	adds	r4, r4, r3
	const uint32_t pinmapping[] = {
     294:	2250      	movs	r2, #80	; 0x50
     296:	49a8      	ldr	r1, [pc, #672]	; (538 <adc_init+0x354>)
     298:	a802      	add	r0, sp, #8
     29a:	47d0      	blx	sl
	if (pin <= ADC_EXTCHANNEL_MSB) {
     29c:	2c13      	cmp	r4, #19
     29e:	d8f1      	bhi.n	284 <adc_init+0xa0>
		pin_map_result = pinmapping[pin >> ADC_INPUTCTRL_MUXPOS_Pos];
     2a0:	00a4      	lsls	r4, r4, #2
     2a2:	ab02      	add	r3, sp, #8
     2a4:	58e0      	ldr	r0, [r4, r3]
	/* Sanity check arguments */
	Assert(config);

	/* Default configuration values */
	config->mux_position = SYSTEM_PINMUX_GPIO;
	config->direction    = SYSTEM_PINMUX_PIN_DIR_INPUT;
     2a6:	a901      	add	r1, sp, #4
     2a8:	2300      	movs	r3, #0
     2aa:	704b      	strb	r3, [r1, #1]
	config->input_pull   = SYSTEM_PINMUX_PIN_PULL_UP;
	config->powersave    = false;
     2ac:	70cb      	strb	r3, [r1, #3]
		config.input_pull   = SYSTEM_PINMUX_PIN_PULL_NONE;
     2ae:	708b      	strb	r3, [r1, #2]
		config.mux_position = 1;
     2b0:	3301      	adds	r3, #1
     2b2:	700b      	strb	r3, [r1, #0]
		system_pinmux_pin_set_config(pin_map_result, &config);
     2b4:	b2c0      	uxtb	r0, r0
     2b6:	4ba1      	ldr	r3, [pc, #644]	; (53c <adc_init+0x358>)
     2b8:	4798      	blx	r3
     2ba:	e7e3      	b.n	284 <adc_init+0xa0>
     2bc:	003e      	movs	r6, r7
     2be:	464f      	mov	r7, r9
		_adc_configure_ain_pin(config->negative_input);
     2c0:	89f4      	ldrh	r4, [r6, #14]
	const uint32_t pinmapping[] = {
     2c2:	2250      	movs	r2, #80	; 0x50
     2c4:	499c      	ldr	r1, [pc, #624]	; (538 <adc_init+0x354>)
     2c6:	a802      	add	r0, sp, #8
     2c8:	4b9a      	ldr	r3, [pc, #616]	; (534 <adc_init+0x350>)
     2ca:	4798      	blx	r3
	if (pin <= ADC_EXTCHANNEL_MSB) {
     2cc:	2c13      	cmp	r4, #19
     2ce:	d913      	bls.n	2f8 <adc_init+0x114>
	adc_module->CTRLA.reg = (config->run_in_standby << ADC_CTRLA_RUNSTDBY_Pos);
     2d0:	7d73      	ldrb	r3, [r6, #21]
     2d2:	009b      	lsls	r3, r3, #2
     2d4:	b2db      	uxtb	r3, r3
     2d6:	465a      	mov	r2, fp
     2d8:	7013      	strb	r3, [r2, #0]
			(config->reference_compensation_enable << ADC_REFCTRL_REFCOMP_Pos) |
     2da:	7db3      	ldrb	r3, [r6, #22]
     2dc:	01db      	lsls	r3, r3, #7
     2de:	7872      	ldrb	r2, [r6, #1]
     2e0:	4313      	orrs	r3, r2
     2e2:	b2db      	uxtb	r3, r3
	adc_module->REFCTRL.reg =
     2e4:	465a      	mov	r2, fp
     2e6:	7053      	strb	r3, [r2, #1]
	switch (config->resolution) {
     2e8:	7933      	ldrb	r3, [r6, #4]
     2ea:	2b34      	cmp	r3, #52	; 0x34
     2ec:	d900      	bls.n	2f0 <adc_init+0x10c>
     2ee:	e18c      	b.n	60a <adc_init+0x426>
     2f0:	009b      	lsls	r3, r3, #2
     2f2:	4a93      	ldr	r2, [pc, #588]	; (540 <adc_init+0x35c>)
     2f4:	58d3      	ldr	r3, [r2, r3]
     2f6:	469f      	mov	pc, r3
		pin_map_result = pinmapping[pin >> ADC_INPUTCTRL_MUXPOS_Pos];
     2f8:	00a4      	lsls	r4, r4, #2
     2fa:	ab02      	add	r3, sp, #8
     2fc:	58e0      	ldr	r0, [r4, r3]
	config->direction    = SYSTEM_PINMUX_PIN_DIR_INPUT;
     2fe:	a901      	add	r1, sp, #4
     300:	2300      	movs	r3, #0
     302:	704b      	strb	r3, [r1, #1]
	config->powersave    = false;
     304:	70cb      	strb	r3, [r1, #3]
		config.input_pull   = SYSTEM_PINMUX_PIN_PULL_NONE;
     306:	708b      	strb	r3, [r1, #2]
		config.mux_position = 1;
     308:	3301      	adds	r3, #1
     30a:	700b      	strb	r3, [r1, #0]
		system_pinmux_pin_set_config(pin_map_result, &config);
     30c:	b2c0      	uxtb	r0, r0
     30e:	4b8b      	ldr	r3, [pc, #556]	; (53c <adc_init+0x358>)
     310:	4798      	blx	r3
     312:	e7dd      	b.n	2d0 <adc_init+0xec>
		_adc_configure_ain_pin(config->positive_input);
     314:	7b34      	ldrb	r4, [r6, #12]
	const uint32_t pinmapping[] = {
     316:	2250      	movs	r2, #80	; 0x50
     318:	4987      	ldr	r1, [pc, #540]	; (538 <adc_init+0x354>)
     31a:	a802      	add	r0, sp, #8
     31c:	4b85      	ldr	r3, [pc, #532]	; (534 <adc_init+0x350>)
     31e:	4798      	blx	r3
	if (pin <= ADC_EXTCHANNEL_MSB) {
     320:	2c13      	cmp	r4, #19
     322:	d915      	bls.n	350 <adc_init+0x16c>
		_adc_configure_ain_pin(config->negative_input);
     324:	89f4      	ldrh	r4, [r6, #14]
	const uint32_t pinmapping[] = {
     326:	2250      	movs	r2, #80	; 0x50
     328:	4983      	ldr	r1, [pc, #524]	; (538 <adc_init+0x354>)
     32a:	a802      	add	r0, sp, #8
     32c:	4b81      	ldr	r3, [pc, #516]	; (534 <adc_init+0x350>)
     32e:	4798      	blx	r3
	if (pin <= ADC_EXTCHANNEL_MSB) {
     330:	2c13      	cmp	r4, #19
     332:	d8cd      	bhi.n	2d0 <adc_init+0xec>
		pin_map_result = pinmapping[pin >> ADC_INPUTCTRL_MUXPOS_Pos];
     334:	00a4      	lsls	r4, r4, #2
     336:	ab02      	add	r3, sp, #8
     338:	58e0      	ldr	r0, [r4, r3]
	config->direction    = SYSTEM_PINMUX_PIN_DIR_INPUT;
     33a:	a901      	add	r1, sp, #4
     33c:	2300      	movs	r3, #0
     33e:	704b      	strb	r3, [r1, #1]
	config->powersave    = false;
     340:	70cb      	strb	r3, [r1, #3]
		config.input_pull   = SYSTEM_PINMUX_PIN_PULL_NONE;
     342:	708b      	strb	r3, [r1, #2]
		config.mux_position = 1;
     344:	3301      	adds	r3, #1
     346:	700b      	strb	r3, [r1, #0]
		system_pinmux_pin_set_config(pin_map_result, &config);
     348:	b2c0      	uxtb	r0, r0
     34a:	4b7c      	ldr	r3, [pc, #496]	; (53c <adc_init+0x358>)
     34c:	4798      	blx	r3
     34e:	e7bf      	b.n	2d0 <adc_init+0xec>
		pin_map_result = pinmapping[pin >> ADC_INPUTCTRL_MUXPOS_Pos];
     350:	00a4      	lsls	r4, r4, #2
     352:	ab02      	add	r3, sp, #8
     354:	58e0      	ldr	r0, [r4, r3]
	config->direction    = SYSTEM_PINMUX_PIN_DIR_INPUT;
     356:	a901      	add	r1, sp, #4
     358:	2300      	movs	r3, #0
     35a:	704b      	strb	r3, [r1, #1]
	config->powersave    = false;
     35c:	70cb      	strb	r3, [r1, #3]
		config.input_pull   = SYSTEM_PINMUX_PIN_PULL_NONE;
     35e:	708b      	strb	r3, [r1, #2]
		config.mux_position = 1;
     360:	3301      	adds	r3, #1
     362:	700b      	strb	r3, [r1, #0]
		system_pinmux_pin_set_config(pin_map_result, &config);
     364:	b2c0      	uxtb	r0, r0
     366:	4b75      	ldr	r3, [pc, #468]	; (53c <adc_init+0x358>)
     368:	4798      	blx	r3
     36a:	e7db      	b.n	324 <adc_init+0x140>
		accumulate = ADC_ACCUMULATE_SAMPLES_16;
     36c:	2304      	movs	r3, #4
		resolution = ADC_RESOLUTION_16BIT;
     36e:	2410      	movs	r4, #16
		adjres = ADC_DIVIDE_RESULT_4;
     370:	2102      	movs	r1, #2
     372:	e022      	b.n	3ba <adc_init+0x1d6>
		adjres = config->divide_result;
     374:	7c71      	ldrb	r1, [r6, #17]
		accumulate = config->accumulate_samples;
     376:	7c33      	ldrb	r3, [r6, #16]
		resolution = ADC_RESOLUTION_16BIT;
     378:	2410      	movs	r4, #16
     37a:	e01e      	b.n	3ba <adc_init+0x1d6>
		if(revision_num < REVISON_D_NUM) {
     37c:	4643      	mov	r3, r8
     37e:	2b02      	cmp	r3, #2
     380:	d800      	bhi.n	384 <adc_init+0x1a0>
     382:	e0c4      	b.n	50e <adc_init+0x32a>
		accumulate = ADC_ACCUMULATE_SAMPLES_64;
     384:	2306      	movs	r3, #6
		resolution = ADC_RESOLUTION_16BIT;
     386:	2410      	movs	r4, #16
			adjres = ADC_DIVIDE_RESULT_2;
     388:	2101      	movs	r1, #1
     38a:	e016      	b.n	3ba <adc_init+0x1d6>
		if(revision_num < REVISON_D_NUM) {
     38c:	4643      	mov	r3, r8
     38e:	2b02      	cmp	r3, #2
     390:	d800      	bhi.n	394 <adc_init+0x1b0>
     392:	e0c0      	b.n	516 <adc_init+0x332>
		accumulate = ADC_ACCUMULATE_SAMPLES_256;
     394:	2308      	movs	r3, #8
		resolution = ADC_RESOLUTION_16BIT;
     396:	2410      	movs	r4, #16
			adjres = ADC_DIVIDE_RESULT_DISABLE;
     398:	2100      	movs	r1, #0
     39a:	e00e      	b.n	3ba <adc_init+0x1d6>
	enum adc_accumulate_samples accumulate = ADC_ACCUMULATE_DISABLE;
     39c:	2300      	movs	r3, #0
		resolution = ADC_RESOLUTION_8BIT;
     39e:	2430      	movs	r4, #48	; 0x30
	uint8_t adjres = 0;
     3a0:	2100      	movs	r1, #0
     3a2:	e00a      	b.n	3ba <adc_init+0x1d6>
	enum adc_accumulate_samples accumulate = ADC_ACCUMULATE_DISABLE;
     3a4:	2300      	movs	r3, #0
		resolution = ADC_RESOLUTION_10BIT;
     3a6:	2420      	movs	r4, #32
	uint8_t adjres = 0;
     3a8:	2100      	movs	r1, #0
     3aa:	e006      	b.n	3ba <adc_init+0x1d6>
	enum adc_accumulate_samples accumulate = ADC_ACCUMULATE_DISABLE;
     3ac:	2300      	movs	r3, #0
		resolution = ADC_RESOLUTION_12BIT;
     3ae:	2400      	movs	r4, #0
	uint8_t adjres = 0;
     3b0:	2100      	movs	r1, #0
     3b2:	e002      	b.n	3ba <adc_init+0x1d6>
		accumulate = ADC_ACCUMULATE_SAMPLES_4;
     3b4:	2302      	movs	r3, #2
		resolution = ADC_RESOLUTION_16BIT;
     3b6:	2410      	movs	r4, #16
		adjres = ADC_DIVIDE_RESULT_2;
     3b8:	2101      	movs	r1, #1
	adc_module->AVGCTRL.reg = ADC_AVGCTRL_ADJRES(adjres) | accumulate;
     3ba:	0109      	lsls	r1, r1, #4
     3bc:	2270      	movs	r2, #112	; 0x70
     3be:	400a      	ands	r2, r1
     3c0:	4313      	orrs	r3, r2
     3c2:	465a      	mov	r2, fp
     3c4:	7093      	strb	r3, [r2, #2]
	if (config->sample_length > 63) {
     3c6:	7df3      	ldrb	r3, [r6, #23]
		return STATUS_ERR_INVALID_ARG;
     3c8:	2017      	movs	r0, #23
	if (config->sample_length > 63) {
     3ca:	2b3f      	cmp	r3, #63	; 0x3f
     3cc:	d900      	bls.n	3d0 <adc_init+0x1ec>
     3ce:	e71d      	b.n	20c <adc_init+0x28>
		adc_module->SAMPCTRL.reg =
     3d0:	70d3      	strb	r3, [r2, #3]
	struct adc_module *const module_inst)
{
	/* Sanity check arguments */
	Assert(module_inst);

	Adc *const adc_module = module_inst->hw;
     3d2:	683a      	ldr	r2, [r7, #0]

	if (adc_module->STATUS.reg & ADC_STATUS_SYNCBUSY) {
     3d4:	7e53      	ldrb	r3, [r2, #25]
	while (adc_is_syncing(module_inst)) {
     3d6:	b25b      	sxtb	r3, r3
     3d8:	2b00      	cmp	r3, #0
     3da:	dbfb      	blt.n	3d4 <adc_init+0x1f0>
			(config->differential_mode << ADC_CTRLB_DIFFMODE_Pos);
     3dc:	7cf3      	ldrb	r3, [r6, #19]
			(config->left_adjust << ADC_CTRLB_LEFTADJ_Pos) |
     3de:	8872      	ldrh	r2, [r6, #2]
     3e0:	4313      	orrs	r3, r2
			(config->correction.correction_enable << ADC_CTRLB_CORREN_Pos) |
     3e2:	2224      	movs	r2, #36	; 0x24
     3e4:	5cb2      	ldrb	r2, [r6, r2]
     3e6:	00d2      	lsls	r2, r2, #3
			(config->left_adjust << ADC_CTRLB_LEFTADJ_Pos) |
     3e8:	4313      	orrs	r3, r2
			(config->freerunning << ADC_CTRLB_FREERUN_Pos) |
     3ea:	7d32      	ldrb	r2, [r6, #20]
     3ec:	0092      	lsls	r2, r2, #2
			(config->left_adjust << ADC_CTRLB_LEFTADJ_Pos) |
     3ee:	4313      	orrs	r3, r2
     3f0:	7cb2      	ldrb	r2, [r6, #18]
     3f2:	0052      	lsls	r2, r2, #1
     3f4:	4313      	orrs	r3, r2
     3f6:	4323      	orrs	r3, r4
	adc_module->CTRLB.reg =
     3f8:	465a      	mov	r2, fp
     3fa:	8093      	strh	r3, [r2, #4]
	if (config->window.window_mode != ADC_WINDOW_MODE_DISABLE) {
     3fc:	7e33      	ldrb	r3, [r6, #24]
     3fe:	2b00      	cmp	r3, #0
     400:	d020      	beq.n	444 <adc_init+0x260>
		switch (resolution) {
     402:	2c10      	cmp	r4, #16
     404:	d100      	bne.n	408 <adc_init+0x224>
     406:	e0e2      	b.n	5ce <adc_init+0x3ea>
     408:	d800      	bhi.n	40c <adc_init+0x228>
     40a:	e0a1      	b.n	550 <adc_init+0x36c>
     40c:	2c20      	cmp	r4, #32
     40e:	d100      	bne.n	412 <adc_init+0x22e>
     410:	e0bf      	b.n	592 <adc_init+0x3ae>
     412:	2c30      	cmp	r4, #48	; 0x30
     414:	d116      	bne.n	444 <adc_init+0x260>
			if (config->differential_mode &&
     416:	7cf2      	ldrb	r2, [r6, #19]
     418:	2a00      	cmp	r2, #0
     41a:	d00a      	beq.n	432 <adc_init+0x24e>
					(config->window.window_lower_value > 127 ||
     41c:	69f2      	ldr	r2, [r6, #28]
     41e:	3280      	adds	r2, #128	; 0x80
				return STATUS_ERR_INVALID_ARG;
     420:	2017      	movs	r0, #23
			if (config->differential_mode &&
     422:	2aff      	cmp	r2, #255	; 0xff
     424:	d900      	bls.n	428 <adc_init+0x244>
     426:	e6f1      	b.n	20c <adc_init+0x28>
					config->window.window_lower_value < -128 ||
     428:	6a32      	ldr	r2, [r6, #32]
     42a:	3280      	adds	r2, #128	; 0x80
     42c:	2aff      	cmp	r2, #255	; 0xff
     42e:	d900      	bls.n	432 <adc_init+0x24e>
     430:	e6ec      	b.n	20c <adc_init+0x28>
				return STATUS_ERR_INVALID_ARG;
     432:	2017      	movs	r0, #23
			} else if (config->window.window_lower_value > 255 ||
     434:	69f2      	ldr	r2, [r6, #28]
     436:	2aff      	cmp	r2, #255	; 0xff
     438:	dd00      	ble.n	43c <adc_init+0x258>
     43a:	e6e7      	b.n	20c <adc_init+0x28>
     43c:	6a32      	ldr	r2, [r6, #32]
     43e:	2aff      	cmp	r2, #255	; 0xff
     440:	dd00      	ble.n	444 <adc_init+0x260>
     442:	e6e3      	b.n	20c <adc_init+0x28>
	Adc *const adc_module = module_inst->hw;
     444:	6839      	ldr	r1, [r7, #0]
	if (adc_module->STATUS.reg & ADC_STATUS_SYNCBUSY) {
     446:	7e4a      	ldrb	r2, [r1, #25]
	while (adc_is_syncing(module_inst)) {
     448:	b252      	sxtb	r2, r2
     44a:	2a00      	cmp	r2, #0
     44c:	dbfb      	blt.n	446 <adc_init+0x262>
	adc_module->WINCTRL.reg = config->window.window_mode;
     44e:	465a      	mov	r2, fp
     450:	7213      	strb	r3, [r2, #8]
	Adc *const adc_module = module_inst->hw;
     452:	683a      	ldr	r2, [r7, #0]
	if (adc_module->STATUS.reg & ADC_STATUS_SYNCBUSY) {
     454:	7e53      	ldrb	r3, [r2, #25]
	while (adc_is_syncing(module_inst)) {
     456:	b25b      	sxtb	r3, r3
     458:	2b00      	cmp	r3, #0
     45a:	dbfb      	blt.n	454 <adc_init+0x270>
	adc_module->WINLT.reg =
     45c:	8bb3      	ldrh	r3, [r6, #28]
     45e:	465a      	mov	r2, fp
     460:	8393      	strh	r3, [r2, #28]
	Adc *const adc_module = module_inst->hw;
     462:	683a      	ldr	r2, [r7, #0]
	if (adc_module->STATUS.reg & ADC_STATUS_SYNCBUSY) {
     464:	7e53      	ldrb	r3, [r2, #25]
	while (adc_is_syncing(module_inst)) {
     466:	b25b      	sxtb	r3, r3
     468:	2b00      	cmp	r3, #0
     46a:	dbfb      	blt.n	464 <adc_init+0x280>
	adc_module->WINUT.reg = config->window.window_upper_value <<
     46c:	8c33      	ldrh	r3, [r6, #32]
     46e:	465a      	mov	r2, fp
     470:	8413      	strh	r3, [r2, #32]
	uint8_t inputs_to_scan = config->pin_scan.inputs_to_scan;
     472:	232c      	movs	r3, #44	; 0x2c
     474:	5cf3      	ldrb	r3, [r6, r3]
	if (inputs_to_scan > 0) {
     476:	2b00      	cmp	r3, #0
     478:	d005      	beq.n	486 <adc_init+0x2a2>
		inputs_to_scan--;
     47a:	3b01      	subs	r3, #1
     47c:	b2db      	uxtb	r3, r3
		return STATUS_ERR_INVALID_ARG;
     47e:	2017      	movs	r0, #23
	if (inputs_to_scan > (ADC_INPUTCTRL_INPUTSCAN_Msk >> ADC_INPUTCTRL_INPUTSCAN_Pos) ||
     480:	2b0f      	cmp	r3, #15
     482:	d900      	bls.n	486 <adc_init+0x2a2>
     484:	e6c2      	b.n	20c <adc_init+0x28>
			config->pin_scan.offset_start_scan > (ADC_INPUTCTRL_INPUTOFFSET_Msk >> ADC_INPUTCTRL_INPUTOFFSET_Pos)) {
     486:	222b      	movs	r2, #43	; 0x2b
     488:	5cb1      	ldrb	r1, [r6, r2]
		return STATUS_ERR_INVALID_ARG;
     48a:	2017      	movs	r0, #23
	if (inputs_to_scan > (ADC_INPUTCTRL_INPUTSCAN_Msk >> ADC_INPUTCTRL_INPUTSCAN_Pos) ||
     48c:	290f      	cmp	r1, #15
     48e:	d900      	bls.n	492 <adc_init+0x2ae>
     490:	e6bc      	b.n	20c <adc_init+0x28>
	Adc *const adc_module = module_inst->hw;
     492:	6838      	ldr	r0, [r7, #0]
	if (adc_module->STATUS.reg & ADC_STATUS_SYNCBUSY) {
     494:	7e42      	ldrb	r2, [r0, #25]
	while (adc_is_syncing(module_inst)) {
     496:	b252      	sxtb	r2, r2
     498:	2a00      	cmp	r2, #0
     49a:	dbfb      	blt.n	494 <adc_init+0x2b0>
			config->negative_input |
     49c:	89f2      	ldrh	r2, [r6, #14]
			config->positive_input;
     49e:	7b30      	ldrb	r0, [r6, #12]
			config->negative_input |
     4a0:	4302      	orrs	r2, r0
     4a2:	68b0      	ldr	r0, [r6, #8]
     4a4:	4302      	orrs	r2, r0
			(config->pin_scan.offset_start_scan <<
     4a6:	0509      	lsls	r1, r1, #20
			config->negative_input |
     4a8:	430a      	orrs	r2, r1
			(inputs_to_scan << ADC_INPUTCTRL_INPUTSCAN_Pos) |
     4aa:	041b      	lsls	r3, r3, #16
			config->negative_input |
     4ac:	4313      	orrs	r3, r2
	adc_module->INPUTCTRL.reg =
     4ae:	465a      	mov	r2, fp
     4b0:	6113      	str	r3, [r2, #16]
	adc_module->EVCTRL.reg = config->event_action;
     4b2:	232a      	movs	r3, #42	; 0x2a
     4b4:	5cf3      	ldrb	r3, [r6, r3]
     4b6:	7513      	strb	r3, [r2, #20]
	adc_module->INTENCLR.reg =
     4b8:	230f      	movs	r3, #15
     4ba:	7593      	strb	r3, [r2, #22]
	if (config->correction.correction_enable){
     4bc:	3315      	adds	r3, #21
     4be:	5cf3      	ldrb	r3, [r6, r3]
     4c0:	2b00      	cmp	r3, #0
     4c2:	d012      	beq.n	4ea <adc_init+0x306>
		if (config->correction.gain_correction > ADC_GAINCORR_GAINCORR_Msk) {
     4c4:	8cf3      	ldrh	r3, [r6, #38]	; 0x26
     4c6:	4a1f      	ldr	r2, [pc, #124]	; (544 <adc_init+0x360>)
			return STATUS_ERR_INVALID_ARG;
     4c8:	2017      	movs	r0, #23
		if (config->correction.gain_correction > ADC_GAINCORR_GAINCORR_Msk) {
     4ca:	4293      	cmp	r3, r2
     4cc:	d900      	bls.n	4d0 <adc_init+0x2ec>
     4ce:	e69d      	b.n	20c <adc_init+0x28>
			adc_module->GAINCORR.reg = config->correction.gain_correction <<
     4d0:	465a      	mov	r2, fp
     4d2:	8493      	strh	r3, [r2, #36]	; 0x24
		if (config->correction.offset_correction > 2047 ||
     4d4:	8d32      	ldrh	r2, [r6, #40]	; 0x28
     4d6:	2380      	movs	r3, #128	; 0x80
     4d8:	011b      	lsls	r3, r3, #4
     4da:	18d3      	adds	r3, r2, r3
     4dc:	4919      	ldr	r1, [pc, #100]	; (544 <adc_init+0x360>)
     4de:	b29b      	uxth	r3, r3
     4e0:	428b      	cmp	r3, r1
     4e2:	d900      	bls.n	4e6 <adc_init+0x302>
     4e4:	e692      	b.n	20c <adc_init+0x28>
			adc_module->OFFSETCORR.reg = config->correction.offset_correction <<
     4e6:	465b      	mov	r3, fp
     4e8:	84da      	strh	r2, [r3, #38]	; 0x26
			ADC_CALIB_BIAS_CAL(
     4ea:	4b17      	ldr	r3, [pc, #92]	; (548 <adc_init+0x364>)
     4ec:	681b      	ldr	r3, [r3, #0]
     4ee:	015b      	lsls	r3, r3, #5
     4f0:	22e0      	movs	r2, #224	; 0xe0
     4f2:	00d2      	lsls	r2, r2, #3
     4f4:	4013      	ands	r3, r2
			ADC_CALIB_LINEARITY_CAL(
     4f6:	4a15      	ldr	r2, [pc, #84]	; (54c <adc_init+0x368>)
     4f8:	6851      	ldr	r1, [r2, #4]
     4fa:	0149      	lsls	r1, r1, #5
     4fc:	6812      	ldr	r2, [r2, #0]
     4fe:	0ed2      	lsrs	r2, r2, #27
     500:	430a      	orrs	r2, r1
     502:	b2d2      	uxtb	r2, r2
			) |
     504:	4313      	orrs	r3, r2
	adc_module->CALIB.reg =
     506:	465a      	mov	r2, fp
     508:	8513      	strh	r3, [r2, #40]	; 0x28
	return STATUS_OK;
     50a:	2000      	movs	r0, #0
     50c:	e67e      	b.n	20c <adc_init+0x28>
		accumulate = ADC_ACCUMULATE_SAMPLES_64;
     50e:	2306      	movs	r3, #6
		resolution = ADC_RESOLUTION_16BIT;
     510:	2410      	movs	r4, #16
			adjres = ADC_DIVIDE_RESULT_8;
     512:	2103      	movs	r1, #3
     514:	e751      	b.n	3ba <adc_init+0x1d6>
		accumulate = ADC_ACCUMULATE_SAMPLES_256;
     516:	2308      	movs	r3, #8
		resolution = ADC_RESOLUTION_16BIT;
     518:	2410      	movs	r4, #16
			adjres = ADC_DIVIDE_RESULT_16;
     51a:	2104      	movs	r1, #4
     51c:	e74d      	b.n	3ba <adc_init+0x1d6>
     51e:	46c0      	nop			; (mov r8, r8)
     520:	40000400 	.word	0x40000400
     524:	40000800 	.word	0x40000800
     528:	41002018 	.word	0x41002018
     52c:	00001fa1 	.word	0x00001fa1
     530:	00001f15 	.word	0x00001f15
     534:	00002831 	.word	0x00002831
     538:	00002928 	.word	0x00002928
     53c:	00002099 	.word	0x00002099
     540:	00002854 	.word	0x00002854
     544:	00000fff 	.word	0x00000fff
     548:	00806024 	.word	0x00806024
     54c:	00806020 	.word	0x00806020
		switch (resolution) {
     550:	2c00      	cmp	r4, #0
     552:	d000      	beq.n	556 <adc_init+0x372>
     554:	e776      	b.n	444 <adc_init+0x260>
			if (config->differential_mode &&
     556:	7cf2      	ldrb	r2, [r6, #19]
     558:	2a00      	cmp	r2, #0
     55a:	d00f      	beq.n	57c <adc_init+0x398>
					(config->window.window_lower_value > 2047 ||
     55c:	69f2      	ldr	r2, [r6, #28]
     55e:	2180      	movs	r1, #128	; 0x80
     560:	0109      	lsls	r1, r1, #4
     562:	468c      	mov	ip, r1
     564:	4462      	add	r2, ip
			if (config->differential_mode &&
     566:	492a      	ldr	r1, [pc, #168]	; (610 <adc_init+0x42c>)
				return STATUS_ERR_INVALID_ARG;
     568:	2017      	movs	r0, #23
			if (config->differential_mode &&
     56a:	428a      	cmp	r2, r1
     56c:	d900      	bls.n	570 <adc_init+0x38c>
     56e:	e64d      	b.n	20c <adc_init+0x28>
					config->window.window_lower_value < -2048 ||
     570:	6a32      	ldr	r2, [r6, #32]
     572:	4462      	add	r2, ip
     574:	4926      	ldr	r1, [pc, #152]	; (610 <adc_init+0x42c>)
     576:	428a      	cmp	r2, r1
     578:	d900      	bls.n	57c <adc_init+0x398>
     57a:	e647      	b.n	20c <adc_init+0x28>
			} else if (config->window.window_lower_value > 4095 ||
     57c:	4a24      	ldr	r2, [pc, #144]	; (610 <adc_init+0x42c>)
				return STATUS_ERR_INVALID_ARG;
     57e:	2017      	movs	r0, #23
			} else if (config->window.window_lower_value > 4095 ||
     580:	69f1      	ldr	r1, [r6, #28]
     582:	4291      	cmp	r1, r2
     584:	dd00      	ble.n	588 <adc_init+0x3a4>
     586:	e641      	b.n	20c <adc_init+0x28>
     588:	6a31      	ldr	r1, [r6, #32]
     58a:	4291      	cmp	r1, r2
     58c:	dd00      	ble.n	590 <adc_init+0x3ac>
     58e:	e63d      	b.n	20c <adc_init+0x28>
     590:	e758      	b.n	444 <adc_init+0x260>
			if (config->differential_mode &&
     592:	7cf2      	ldrb	r2, [r6, #19]
     594:	2a00      	cmp	r2, #0
     596:	d00f      	beq.n	5b8 <adc_init+0x3d4>
					(config->window.window_lower_value > 511 ||
     598:	69f2      	ldr	r2, [r6, #28]
     59a:	2180      	movs	r1, #128	; 0x80
     59c:	0089      	lsls	r1, r1, #2
     59e:	468c      	mov	ip, r1
     5a0:	4462      	add	r2, ip
			if (config->differential_mode &&
     5a2:	491c      	ldr	r1, [pc, #112]	; (614 <adc_init+0x430>)
				return STATUS_ERR_INVALID_ARG;
     5a4:	2017      	movs	r0, #23
			if (config->differential_mode &&
     5a6:	428a      	cmp	r2, r1
     5a8:	d900      	bls.n	5ac <adc_init+0x3c8>
     5aa:	e62f      	b.n	20c <adc_init+0x28>
					config->window.window_lower_value < -512 ||
     5ac:	6a32      	ldr	r2, [r6, #32]
     5ae:	4462      	add	r2, ip
     5b0:	4918      	ldr	r1, [pc, #96]	; (614 <adc_init+0x430>)
     5b2:	428a      	cmp	r2, r1
     5b4:	d900      	bls.n	5b8 <adc_init+0x3d4>
     5b6:	e629      	b.n	20c <adc_init+0x28>
			} else if (config->window.window_lower_value > 1023 ||
     5b8:	4a16      	ldr	r2, [pc, #88]	; (614 <adc_init+0x430>)
				return STATUS_ERR_INVALID_ARG;
     5ba:	2017      	movs	r0, #23
			} else if (config->window.window_lower_value > 1023 ||
     5bc:	69f1      	ldr	r1, [r6, #28]
     5be:	4291      	cmp	r1, r2
     5c0:	dd00      	ble.n	5c4 <adc_init+0x3e0>
     5c2:	e623      	b.n	20c <adc_init+0x28>
     5c4:	6a31      	ldr	r1, [r6, #32]
     5c6:	4291      	cmp	r1, r2
     5c8:	dd00      	ble.n	5cc <adc_init+0x3e8>
     5ca:	e61f      	b.n	20c <adc_init+0x28>
     5cc:	e73a      	b.n	444 <adc_init+0x260>
			if (config->differential_mode &&
     5ce:	7cf2      	ldrb	r2, [r6, #19]
     5d0:	2a00      	cmp	r2, #0
     5d2:	d00f      	beq.n	5f4 <adc_init+0x410>
					(config->window.window_lower_value > 32767 ||
     5d4:	69f2      	ldr	r2, [r6, #28]
     5d6:	2180      	movs	r1, #128	; 0x80
     5d8:	0209      	lsls	r1, r1, #8
     5da:	468c      	mov	ip, r1
     5dc:	4462      	add	r2, ip
			if (config->differential_mode &&
     5de:	490e      	ldr	r1, [pc, #56]	; (618 <adc_init+0x434>)
				return STATUS_ERR_INVALID_ARG;
     5e0:	2017      	movs	r0, #23
			if (config->differential_mode &&
     5e2:	428a      	cmp	r2, r1
     5e4:	d900      	bls.n	5e8 <adc_init+0x404>
     5e6:	e611      	b.n	20c <adc_init+0x28>
					config->window.window_lower_value < -32768 ||
     5e8:	6a32      	ldr	r2, [r6, #32]
     5ea:	4462      	add	r2, ip
     5ec:	490a      	ldr	r1, [pc, #40]	; (618 <adc_init+0x434>)
     5ee:	428a      	cmp	r2, r1
     5f0:	d900      	bls.n	5f4 <adc_init+0x410>
     5f2:	e60b      	b.n	20c <adc_init+0x28>
			} else if (config->window.window_lower_value > 65535 ||
     5f4:	4a08      	ldr	r2, [pc, #32]	; (618 <adc_init+0x434>)
				return STATUS_ERR_INVALID_ARG;
     5f6:	2017      	movs	r0, #23
			} else if (config->window.window_lower_value > 65535 ||
     5f8:	69f1      	ldr	r1, [r6, #28]
     5fa:	4291      	cmp	r1, r2
     5fc:	dd00      	ble.n	600 <adc_init+0x41c>
     5fe:	e605      	b.n	20c <adc_init+0x28>
     600:	6a31      	ldr	r1, [r6, #32]
     602:	4291      	cmp	r1, r2
     604:	dd00      	ble.n	608 <adc_init+0x424>
     606:	e601      	b.n	20c <adc_init+0x28>
     608:	e71c      	b.n	444 <adc_init+0x260>
		return STATUS_ERR_INVALID_ARG;
     60a:	2017      	movs	r0, #23
     60c:	e5fe      	b.n	20c <adc_init+0x28>
     60e:	46c0      	nop			; (mov r8, r8)
     610:	00000fff 	.word	0x00000fff
     614:	000003ff 	.word	0x000003ff
     618:	0000ffff 	.word	0x0000ffff

0000061c <long_division>:
/**
 * \internal Calculate 64 bit division, ref can be found in
 * http://en.wikipedia.org/wiki/Division_algorithm#Long_division
 */
static uint64_t long_division(uint64_t n, uint64_t d)
{
     61c:	b5f0      	push	{r4, r5, r6, r7, lr}
     61e:	46de      	mov	lr, fp
     620:	4657      	mov	r7, sl
     622:	464e      	mov	r6, r9
     624:	4645      	mov	r5, r8
     626:	b5e0      	push	{r5, r6, r7, lr}
     628:	b087      	sub	sp, #28
     62a:	4680      	mov	r8, r0
     62c:	9104      	str	r1, [sp, #16]
     62e:	0016      	movs	r6, r2
     630:	001f      	movs	r7, r3
	int32_t i;
	uint64_t q = 0, r = 0, bit_shift;
     632:	2200      	movs	r2, #0
     634:	2300      	movs	r3, #0
     636:	2100      	movs	r1, #0
     638:	468b      	mov	fp, r1
	for (i = 63; i >= 0; i--) {
     63a:	243f      	movs	r4, #63	; 0x3f
		bit_shift = (uint64_t)1 << i;
     63c:	2001      	movs	r0, #1
     63e:	0021      	movs	r1, r4
     640:	9600      	str	r6, [sp, #0]
     642:	9701      	str	r7, [sp, #4]
     644:	465c      	mov	r4, fp
     646:	9403      	str	r4, [sp, #12]
     648:	4644      	mov	r4, r8
     64a:	9405      	str	r4, [sp, #20]
     64c:	e013      	b.n	676 <long_division+0x5a>
     64e:	2420      	movs	r4, #32
     650:	1a64      	subs	r4, r4, r1
     652:	0005      	movs	r5, r0
     654:	40e5      	lsrs	r5, r4
     656:	46a8      	mov	r8, r5
     658:	e014      	b.n	684 <long_division+0x68>
		if (n & bit_shift) {
			r |= 0x01;
		}

		if (r >= d) {
			r = r - d;
     65a:	9c00      	ldr	r4, [sp, #0]
     65c:	9d01      	ldr	r5, [sp, #4]
     65e:	1b12      	subs	r2, r2, r4
     660:	41ab      	sbcs	r3, r5
			q |= bit_shift;
     662:	465c      	mov	r4, fp
     664:	464d      	mov	r5, r9
     666:	432c      	orrs	r4, r5
     668:	46a3      	mov	fp, r4
     66a:	9c03      	ldr	r4, [sp, #12]
     66c:	4645      	mov	r5, r8
     66e:	432c      	orrs	r4, r5
     670:	9403      	str	r4, [sp, #12]
	for (i = 63; i >= 0; i--) {
     672:	3901      	subs	r1, #1
     674:	d325      	bcc.n	6c2 <long_division+0xa6>
		bit_shift = (uint64_t)1 << i;
     676:	2420      	movs	r4, #32
     678:	4264      	negs	r4, r4
     67a:	190c      	adds	r4, r1, r4
     67c:	d4e7      	bmi.n	64e <long_division+0x32>
     67e:	0005      	movs	r5, r0
     680:	40a5      	lsls	r5, r4
     682:	46a8      	mov	r8, r5
     684:	0004      	movs	r4, r0
     686:	408c      	lsls	r4, r1
     688:	46a1      	mov	r9, r4
		r = r << 1;
     68a:	1892      	adds	r2, r2, r2
     68c:	415b      	adcs	r3, r3
     68e:	0014      	movs	r4, r2
     690:	001d      	movs	r5, r3
		if (n & bit_shift) {
     692:	9e05      	ldr	r6, [sp, #20]
     694:	464f      	mov	r7, r9
     696:	403e      	ands	r6, r7
     698:	46b4      	mov	ip, r6
     69a:	9e04      	ldr	r6, [sp, #16]
     69c:	4647      	mov	r7, r8
     69e:	403e      	ands	r6, r7
     6a0:	46b2      	mov	sl, r6
     6a2:	4666      	mov	r6, ip
     6a4:	4657      	mov	r7, sl
     6a6:	433e      	orrs	r6, r7
     6a8:	d003      	beq.n	6b2 <long_division+0x96>
			r |= 0x01;
     6aa:	0006      	movs	r6, r0
     6ac:	4326      	orrs	r6, r4
     6ae:	0032      	movs	r2, r6
     6b0:	002b      	movs	r3, r5
		if (r >= d) {
     6b2:	9c00      	ldr	r4, [sp, #0]
     6b4:	9d01      	ldr	r5, [sp, #4]
     6b6:	429d      	cmp	r5, r3
     6b8:	d8db      	bhi.n	672 <long_division+0x56>
     6ba:	d1ce      	bne.n	65a <long_division+0x3e>
     6bc:	4294      	cmp	r4, r2
     6be:	d8d8      	bhi.n	672 <long_division+0x56>
     6c0:	e7cb      	b.n	65a <long_division+0x3e>
     6c2:	9b03      	ldr	r3, [sp, #12]
		}
	}

	return q;
}
     6c4:	4658      	mov	r0, fp
     6c6:	0019      	movs	r1, r3
     6c8:	b007      	add	sp, #28
     6ca:	bc3c      	pop	{r2, r3, r4, r5}
     6cc:	4690      	mov	r8, r2
     6ce:	4699      	mov	r9, r3
     6d0:	46a2      	mov	sl, r4
     6d2:	46ab      	mov	fp, r5
     6d4:	bdf0      	pop	{r4, r5, r6, r7, pc}

000006d6 <_sercom_get_sync_baud_val>:
 */
enum status_code _sercom_get_sync_baud_val(
		const uint32_t baudrate,
		const uint32_t external_clock,
		uint16_t *const baudvalue)
{
     6d6:	b510      	push	{r4, lr}
	uint16_t baud_calculated = 0;
	uint32_t clock_value = external_clock;


	/* Check if baudrate is outside of valid range */
	if (baudrate > (external_clock / 2)) {
     6d8:	0849      	lsrs	r1, r1, #1
		/* Return with error code */
		return STATUS_ERR_BAUDRATE_UNAVAILABLE;
     6da:	2340      	movs	r3, #64	; 0x40
     6dc:	2400      	movs	r4, #0
	if (baudrate > (external_clock / 2)) {
     6de:	4281      	cmp	r1, r0
     6e0:	d202      	bcs.n	6e8 <_sercom_get_sync_baud_val+0x12>
		return STATUS_ERR_BAUDRATE_UNAVAILABLE;
	} else {
		*baudvalue = baud_calculated;
		return STATUS_OK;
	}
}
     6e2:	0018      	movs	r0, r3
     6e4:	bd10      	pop	{r4, pc}
		baud_calculated++;
     6e6:	001c      	movs	r4, r3
		clock_value = clock_value - baudrate;
     6e8:	1a09      	subs	r1, r1, r0
		baud_calculated++;
     6ea:	1c63      	adds	r3, r4, #1
     6ec:	b29b      	uxth	r3, r3
	while (clock_value >= baudrate) {
     6ee:	4288      	cmp	r0, r1
     6f0:	d9f9      	bls.n	6e6 <_sercom_get_sync_baud_val+0x10>
		return STATUS_ERR_BAUDRATE_UNAVAILABLE;
     6f2:	2340      	movs	r3, #64	; 0x40
	if (baud_calculated > 0xFF) {
     6f4:	2cff      	cmp	r4, #255	; 0xff
     6f6:	d8f4      	bhi.n	6e2 <_sercom_get_sync_baud_val+0xc>
		*baudvalue = baud_calculated;
     6f8:	8014      	strh	r4, [r2, #0]
		return STATUS_OK;
     6fa:	2300      	movs	r3, #0
     6fc:	e7f1      	b.n	6e2 <_sercom_get_sync_baud_val+0xc>
	...

00000700 <_sercom_get_async_baud_val>:
		const uint32_t baudrate,
		const uint32_t peripheral_clock,
		uint16_t *const baudval,
		enum sercom_asynchronous_operation_mode mode,
		enum sercom_asynchronous_sample_num sample_num)
{
     700:	b5f0      	push	{r4, r5, r6, r7, lr}
     702:	b083      	sub	sp, #12
     704:	000f      	movs	r7, r1
     706:	0016      	movs	r6, r2
     708:	aa08      	add	r2, sp, #32
     70a:	7811      	ldrb	r1, [r2, #0]
	uint8_t baud_fp;
	uint32_t baud_int = 0;
	uint64_t temp1;

	/* Check if the baudrate is outside of valid range */
	if ((baudrate * sample_num) > peripheral_clock) {
     70c:	0004      	movs	r4, r0
     70e:	434c      	muls	r4, r1
		/* Return with error code */
		return STATUS_ERR_BAUDRATE_UNAVAILABLE;
     710:	2240      	movs	r2, #64	; 0x40
	if ((baudrate * sample_num) > peripheral_clock) {
     712:	42bc      	cmp	r4, r7
     714:	d902      	bls.n	71c <_sercom_get_async_baud_val+0x1c>
		baud_calculated = baud_int | (baud_fp << 13);
	}

	*baudval = baud_calculated;
	return STATUS_OK;
}
     716:	0010      	movs	r0, r2
     718:	b003      	add	sp, #12
     71a:	bdf0      	pop	{r4, r5, r6, r7, pc}
	if(mode == SERCOM_ASYNC_OPERATION_MODE_ARITHMETIC) {
     71c:	2b00      	cmp	r3, #0
     71e:	d114      	bne.n	74a <_sercom_get_async_baud_val+0x4a>
		temp1 = ((sample_num * (uint64_t)baudrate) << SHIFT);
     720:	0002      	movs	r2, r0
     722:	0008      	movs	r0, r1
     724:	2100      	movs	r1, #0
     726:	4c19      	ldr	r4, [pc, #100]	; (78c <_sercom_get_async_baud_val+0x8c>)
     728:	47a0      	blx	r4
     72a:	0001      	movs	r1, r0
		ratio = long_division(temp1, peripheral_clock);
     72c:	003a      	movs	r2, r7
     72e:	2300      	movs	r3, #0
     730:	2000      	movs	r0, #0
     732:	4c17      	ldr	r4, [pc, #92]	; (790 <_sercom_get_async_baud_val+0x90>)
     734:	47a0      	blx	r4
		scale = ((uint64_t)1 << SHIFT) - ratio;
     736:	2200      	movs	r2, #0
     738:	2301      	movs	r3, #1
     73a:	1a12      	subs	r2, r2, r0
     73c:	418b      	sbcs	r3, r1
		baud_calculated = (65536 * scale) >> SHIFT;
     73e:	0c12      	lsrs	r2, r2, #16
     740:	041b      	lsls	r3, r3, #16
     742:	431a      	orrs	r2, r3
	*baudval = baud_calculated;
     744:	8032      	strh	r2, [r6, #0]
	return STATUS_OK;
     746:	2200      	movs	r2, #0
     748:	e7e5      	b.n	716 <_sercom_get_async_baud_val+0x16>
	uint64_t baud_calculated = 0;
     74a:	2200      	movs	r2, #0
	} else if(mode == SERCOM_ASYNC_OPERATION_MODE_FRACTIONAL) {
     74c:	2b01      	cmp	r3, #1
     74e:	d1f9      	bne.n	744 <_sercom_get_async_baud_val+0x44>
		temp1 = ((uint64_t)baudrate * sample_num);
     750:	000a      	movs	r2, r1
     752:	2300      	movs	r3, #0
     754:	2100      	movs	r1, #0
     756:	4c0d      	ldr	r4, [pc, #52]	; (78c <_sercom_get_async_baud_val+0x8c>)
     758:	47a0      	blx	r4
     75a:	0002      	movs	r2, r0
     75c:	000b      	movs	r3, r1
     75e:	9200      	str	r2, [sp, #0]
     760:	9301      	str	r3, [sp, #4]
		baud_int = long_division( peripheral_clock, temp1);
     762:	0038      	movs	r0, r7
     764:	2100      	movs	r1, #0
     766:	4c0a      	ldr	r4, [pc, #40]	; (790 <_sercom_get_async_baud_val+0x90>)
     768:	47a0      	blx	r4
     76a:	0005      	movs	r5, r0
		if(baud_int > BAUD_INT_MAX) {
     76c:	2380      	movs	r3, #128	; 0x80
     76e:	019b      	lsls	r3, r3, #6
				return STATUS_ERR_BAUDRATE_UNAVAILABLE;
     770:	2240      	movs	r2, #64	; 0x40
		if(baud_int > BAUD_INT_MAX) {
     772:	4298      	cmp	r0, r3
     774:	d8cf      	bhi.n	716 <_sercom_get_async_baud_val+0x16>
		temp1 = long_division( 8 * (uint64_t)peripheral_clock, temp1);
     776:	0f79      	lsrs	r1, r7, #29
     778:	00f8      	lsls	r0, r7, #3
     77a:	9a00      	ldr	r2, [sp, #0]
     77c:	9b01      	ldr	r3, [sp, #4]
     77e:	47a0      	blx	r4
		baud_fp = temp1 - 8 * baud_int;
     780:	00ea      	lsls	r2, r5, #3
     782:	1a82      	subs	r2, r0, r2
		baud_calculated = baud_int | (baud_fp << 13);
     784:	b2d2      	uxtb	r2, r2
     786:	0352      	lsls	r2, r2, #13
     788:	432a      	orrs	r2, r5
     78a:	e7db      	b.n	744 <_sercom_get_async_baud_val+0x44>
     78c:	00002795 	.word	0x00002795
     790:	0000061d 	.word	0x0000061d

00000794 <sercom_set_gclk_generator>:
 *                                         forced.
 */
enum status_code sercom_set_gclk_generator(
		const enum gclk_generator generator_source,
		const bool force_change)
{
     794:	b510      	push	{r4, lr}
     796:	b082      	sub	sp, #8
     798:	0004      	movs	r4, r0
	/* Check if valid option */
	if (!_sercom_config.generator_is_set || force_change) {
     79a:	4b0e      	ldr	r3, [pc, #56]	; (7d4 <sercom_set_gclk_generator+0x40>)
     79c:	781b      	ldrb	r3, [r3, #0]
     79e:	2b00      	cmp	r3, #0
     7a0:	d007      	beq.n	7b2 <sercom_set_gclk_generator+0x1e>
     7a2:	2900      	cmp	r1, #0
     7a4:	d105      	bne.n	7b2 <sercom_set_gclk_generator+0x1e>
		/* Save config */
		_sercom_config.generator_source = generator_source;
		_sercom_config.generator_is_set = true;

		return STATUS_OK;
	} else if (generator_source == _sercom_config.generator_source) {
     7a6:	4b0b      	ldr	r3, [pc, #44]	; (7d4 <sercom_set_gclk_generator+0x40>)
     7a8:	785b      	ldrb	r3, [r3, #1]
     7aa:	4283      	cmp	r3, r0
     7ac:	d010      	beq.n	7d0 <sercom_set_gclk_generator+0x3c>
		/* Return status OK if same config */
		return STATUS_OK;
	}

	/* Return invalid config to already initialized GCLK */
	return STATUS_ERR_ALREADY_INITIALIZED;
     7ae:	201d      	movs	r0, #29
     7b0:	e00c      	b.n	7cc <sercom_set_gclk_generator+0x38>
		gclk_chan_conf.source_generator = generator_source;
     7b2:	a901      	add	r1, sp, #4
     7b4:	700c      	strb	r4, [r1, #0]
		system_gclk_chan_set_config(SERCOM_GCLK_ID, &gclk_chan_conf);
     7b6:	200c      	movs	r0, #12
     7b8:	4b07      	ldr	r3, [pc, #28]	; (7d8 <sercom_set_gclk_generator+0x44>)
     7ba:	4798      	blx	r3
		system_gclk_chan_enable(SERCOM_GCLK_ID);
     7bc:	200c      	movs	r0, #12
     7be:	4b07      	ldr	r3, [pc, #28]	; (7dc <sercom_set_gclk_generator+0x48>)
     7c0:	4798      	blx	r3
		_sercom_config.generator_source = generator_source;
     7c2:	4b04      	ldr	r3, [pc, #16]	; (7d4 <sercom_set_gclk_generator+0x40>)
     7c4:	705c      	strb	r4, [r3, #1]
		_sercom_config.generator_is_set = true;
     7c6:	2201      	movs	r2, #1
     7c8:	701a      	strb	r2, [r3, #0]
		return STATUS_OK;
     7ca:	2000      	movs	r0, #0
}
     7cc:	b002      	add	sp, #8
     7ce:	bd10      	pop	{r4, pc}
		return STATUS_OK;
     7d0:	2000      	movs	r0, #0
     7d2:	e7fb      	b.n	7cc <sercom_set_gclk_generator+0x38>
     7d4:	20000044 	.word	0x20000044
     7d8:	00001fa1 	.word	0x00001fa1
     7dc:	00001f15 	.word	0x00001f15

000007e0 <_sercom_get_default_pad>:
 */
uint32_t _sercom_get_default_pad(
		Sercom *const sercom_module,
		const uint8_t pad)
{
	switch ((uintptr_t)sercom_module) {
     7e0:	4b40      	ldr	r3, [pc, #256]	; (8e4 <_sercom_get_default_pad+0x104>)
     7e2:	4298      	cmp	r0, r3
     7e4:	d031      	beq.n	84a <_sercom_get_default_pad+0x6a>
     7e6:	d90a      	bls.n	7fe <_sercom_get_default_pad+0x1e>
     7e8:	4b3f      	ldr	r3, [pc, #252]	; (8e8 <_sercom_get_default_pad+0x108>)
     7ea:	4298      	cmp	r0, r3
     7ec:	d04d      	beq.n	88a <_sercom_get_default_pad+0xaa>
     7ee:	4b3f      	ldr	r3, [pc, #252]	; (8ec <_sercom_get_default_pad+0x10c>)
     7f0:	4298      	cmp	r0, r3
     7f2:	d05a      	beq.n	8aa <_sercom_get_default_pad+0xca>
     7f4:	4b3e      	ldr	r3, [pc, #248]	; (8f0 <_sercom_get_default_pad+0x110>)
     7f6:	4298      	cmp	r0, r3
     7f8:	d037      	beq.n	86a <_sercom_get_default_pad+0x8a>
		/* Auto-generate a lookup table for the default SERCOM pad defaults */
		MREPEAT(SERCOM_INST_NUM, _SERCOM_PAD_DEFAULTS_CASE, pad)
	}

	Assert(false);
	return 0;
     7fa:	2000      	movs	r0, #0
}
     7fc:	4770      	bx	lr
	switch ((uintptr_t)sercom_module) {
     7fe:	4b3d      	ldr	r3, [pc, #244]	; (8f4 <_sercom_get_default_pad+0x114>)
     800:	4298      	cmp	r0, r3
     802:	d00c      	beq.n	81e <_sercom_get_default_pad+0x3e>
     804:	4b3c      	ldr	r3, [pc, #240]	; (8f8 <_sercom_get_default_pad+0x118>)
     806:	4298      	cmp	r0, r3
     808:	d1f7      	bne.n	7fa <_sercom_get_default_pad+0x1a>
		MREPEAT(SERCOM_INST_NUM, _SERCOM_PAD_DEFAULTS_CASE, pad)
     80a:	2901      	cmp	r1, #1
     80c:	d017      	beq.n	83e <_sercom_get_default_pad+0x5e>
     80e:	2900      	cmp	r1, #0
     810:	d05d      	beq.n	8ce <_sercom_get_default_pad+0xee>
     812:	2902      	cmp	r1, #2
     814:	d015      	beq.n	842 <_sercom_get_default_pad+0x62>
     816:	2903      	cmp	r1, #3
     818:	d015      	beq.n	846 <_sercom_get_default_pad+0x66>
	return 0;
     81a:	2000      	movs	r0, #0
     81c:	e7ee      	b.n	7fc <_sercom_get_default_pad+0x1c>
		MREPEAT(SERCOM_INST_NUM, _SERCOM_PAD_DEFAULTS_CASE, pad)
     81e:	2901      	cmp	r1, #1
     820:	d007      	beq.n	832 <_sercom_get_default_pad+0x52>
     822:	2900      	cmp	r1, #0
     824:	d051      	beq.n	8ca <_sercom_get_default_pad+0xea>
     826:	2902      	cmp	r1, #2
     828:	d005      	beq.n	836 <_sercom_get_default_pad+0x56>
     82a:	2903      	cmp	r1, #3
     82c:	d005      	beq.n	83a <_sercom_get_default_pad+0x5a>
	return 0;
     82e:	2000      	movs	r0, #0
     830:	e7e4      	b.n	7fc <_sercom_get_default_pad+0x1c>
		MREPEAT(SERCOM_INST_NUM, _SERCOM_PAD_DEFAULTS_CASE, pad)
     832:	4832      	ldr	r0, [pc, #200]	; (8fc <_sercom_get_default_pad+0x11c>)
     834:	e7e2      	b.n	7fc <_sercom_get_default_pad+0x1c>
     836:	4832      	ldr	r0, [pc, #200]	; (900 <_sercom_get_default_pad+0x120>)
     838:	e7e0      	b.n	7fc <_sercom_get_default_pad+0x1c>
     83a:	4832      	ldr	r0, [pc, #200]	; (904 <_sercom_get_default_pad+0x124>)
     83c:	e7de      	b.n	7fc <_sercom_get_default_pad+0x1c>
     83e:	4832      	ldr	r0, [pc, #200]	; (908 <_sercom_get_default_pad+0x128>)
     840:	e7dc      	b.n	7fc <_sercom_get_default_pad+0x1c>
     842:	4832      	ldr	r0, [pc, #200]	; (90c <_sercom_get_default_pad+0x12c>)
     844:	e7da      	b.n	7fc <_sercom_get_default_pad+0x1c>
     846:	4832      	ldr	r0, [pc, #200]	; (910 <_sercom_get_default_pad+0x130>)
     848:	e7d8      	b.n	7fc <_sercom_get_default_pad+0x1c>
     84a:	2901      	cmp	r1, #1
     84c:	d007      	beq.n	85e <_sercom_get_default_pad+0x7e>
     84e:	2900      	cmp	r1, #0
     850:	d03f      	beq.n	8d2 <_sercom_get_default_pad+0xf2>
     852:	2902      	cmp	r1, #2
     854:	d005      	beq.n	862 <_sercom_get_default_pad+0x82>
     856:	2903      	cmp	r1, #3
     858:	d005      	beq.n	866 <_sercom_get_default_pad+0x86>
	return 0;
     85a:	2000      	movs	r0, #0
     85c:	e7ce      	b.n	7fc <_sercom_get_default_pad+0x1c>
		MREPEAT(SERCOM_INST_NUM, _SERCOM_PAD_DEFAULTS_CASE, pad)
     85e:	482d      	ldr	r0, [pc, #180]	; (914 <_sercom_get_default_pad+0x134>)
     860:	e7cc      	b.n	7fc <_sercom_get_default_pad+0x1c>
     862:	482d      	ldr	r0, [pc, #180]	; (918 <_sercom_get_default_pad+0x138>)
     864:	e7ca      	b.n	7fc <_sercom_get_default_pad+0x1c>
     866:	482d      	ldr	r0, [pc, #180]	; (91c <_sercom_get_default_pad+0x13c>)
     868:	e7c8      	b.n	7fc <_sercom_get_default_pad+0x1c>
     86a:	2901      	cmp	r1, #1
     86c:	d007      	beq.n	87e <_sercom_get_default_pad+0x9e>
     86e:	2900      	cmp	r1, #0
     870:	d031      	beq.n	8d6 <_sercom_get_default_pad+0xf6>
     872:	2902      	cmp	r1, #2
     874:	d005      	beq.n	882 <_sercom_get_default_pad+0xa2>
     876:	2903      	cmp	r1, #3
     878:	d005      	beq.n	886 <_sercom_get_default_pad+0xa6>
	return 0;
     87a:	2000      	movs	r0, #0
     87c:	e7be      	b.n	7fc <_sercom_get_default_pad+0x1c>
		MREPEAT(SERCOM_INST_NUM, _SERCOM_PAD_DEFAULTS_CASE, pad)
     87e:	4828      	ldr	r0, [pc, #160]	; (920 <_sercom_get_default_pad+0x140>)
     880:	e7bc      	b.n	7fc <_sercom_get_default_pad+0x1c>
     882:	4828      	ldr	r0, [pc, #160]	; (924 <_sercom_get_default_pad+0x144>)
     884:	e7ba      	b.n	7fc <_sercom_get_default_pad+0x1c>
     886:	4828      	ldr	r0, [pc, #160]	; (928 <_sercom_get_default_pad+0x148>)
     888:	e7b8      	b.n	7fc <_sercom_get_default_pad+0x1c>
     88a:	2901      	cmp	r1, #1
     88c:	d007      	beq.n	89e <_sercom_get_default_pad+0xbe>
     88e:	2900      	cmp	r1, #0
     890:	d023      	beq.n	8da <_sercom_get_default_pad+0xfa>
     892:	2902      	cmp	r1, #2
     894:	d005      	beq.n	8a2 <_sercom_get_default_pad+0xc2>
     896:	2903      	cmp	r1, #3
     898:	d005      	beq.n	8a6 <_sercom_get_default_pad+0xc6>
	return 0;
     89a:	2000      	movs	r0, #0
     89c:	e7ae      	b.n	7fc <_sercom_get_default_pad+0x1c>
		MREPEAT(SERCOM_INST_NUM, _SERCOM_PAD_DEFAULTS_CASE, pad)
     89e:	4823      	ldr	r0, [pc, #140]	; (92c <_sercom_get_default_pad+0x14c>)
     8a0:	e7ac      	b.n	7fc <_sercom_get_default_pad+0x1c>
     8a2:	4823      	ldr	r0, [pc, #140]	; (930 <_sercom_get_default_pad+0x150>)
     8a4:	e7aa      	b.n	7fc <_sercom_get_default_pad+0x1c>
     8a6:	4823      	ldr	r0, [pc, #140]	; (934 <_sercom_get_default_pad+0x154>)
     8a8:	e7a8      	b.n	7fc <_sercom_get_default_pad+0x1c>
     8aa:	2901      	cmp	r1, #1
     8ac:	d007      	beq.n	8be <_sercom_get_default_pad+0xde>
     8ae:	2900      	cmp	r1, #0
     8b0:	d015      	beq.n	8de <_sercom_get_default_pad+0xfe>
     8b2:	2902      	cmp	r1, #2
     8b4:	d005      	beq.n	8c2 <_sercom_get_default_pad+0xe2>
     8b6:	2903      	cmp	r1, #3
     8b8:	d005      	beq.n	8c6 <_sercom_get_default_pad+0xe6>
	return 0;
     8ba:	2000      	movs	r0, #0
     8bc:	e79e      	b.n	7fc <_sercom_get_default_pad+0x1c>
		MREPEAT(SERCOM_INST_NUM, _SERCOM_PAD_DEFAULTS_CASE, pad)
     8be:	481e      	ldr	r0, [pc, #120]	; (938 <_sercom_get_default_pad+0x158>)
     8c0:	e79c      	b.n	7fc <_sercom_get_default_pad+0x1c>
     8c2:	481e      	ldr	r0, [pc, #120]	; (93c <_sercom_get_default_pad+0x15c>)
     8c4:	e79a      	b.n	7fc <_sercom_get_default_pad+0x1c>
     8c6:	481e      	ldr	r0, [pc, #120]	; (940 <_sercom_get_default_pad+0x160>)
     8c8:	e798      	b.n	7fc <_sercom_get_default_pad+0x1c>
     8ca:	481e      	ldr	r0, [pc, #120]	; (944 <_sercom_get_default_pad+0x164>)
     8cc:	e796      	b.n	7fc <_sercom_get_default_pad+0x1c>
     8ce:	2003      	movs	r0, #3
     8d0:	e794      	b.n	7fc <_sercom_get_default_pad+0x1c>
     8d2:	481d      	ldr	r0, [pc, #116]	; (948 <_sercom_get_default_pad+0x168>)
     8d4:	e792      	b.n	7fc <_sercom_get_default_pad+0x1c>
     8d6:	481d      	ldr	r0, [pc, #116]	; (94c <_sercom_get_default_pad+0x16c>)
     8d8:	e790      	b.n	7fc <_sercom_get_default_pad+0x1c>
     8da:	481d      	ldr	r0, [pc, #116]	; (950 <_sercom_get_default_pad+0x170>)
     8dc:	e78e      	b.n	7fc <_sercom_get_default_pad+0x1c>
     8de:	481d      	ldr	r0, [pc, #116]	; (954 <_sercom_get_default_pad+0x174>)
     8e0:	e78c      	b.n	7fc <_sercom_get_default_pad+0x1c>
     8e2:	46c0      	nop			; (mov r8, r8)
     8e4:	42001000 	.word	0x42001000
     8e8:	42001800 	.word	0x42001800
     8ec:	42001c00 	.word	0x42001c00
     8f0:	42001400 	.word	0x42001400
     8f4:	42000800 	.word	0x42000800
     8f8:	42000c00 	.word	0x42000c00
     8fc:	00050003 	.word	0x00050003
     900:	00060003 	.word	0x00060003
     904:	00070003 	.word	0x00070003
     908:	00010003 	.word	0x00010003
     90c:	001e0003 	.word	0x001e0003
     910:	001f0003 	.word	0x001f0003
     914:	00090003 	.word	0x00090003
     918:	000a0003 	.word	0x000a0003
     91c:	000b0003 	.word	0x000b0003
     920:	00110003 	.word	0x00110003
     924:	00120003 	.word	0x00120003
     928:	00130003 	.word	0x00130003
     92c:	000d0003 	.word	0x000d0003
     930:	000e0003 	.word	0x000e0003
     934:	000f0003 	.word	0x000f0003
     938:	00170003 	.word	0x00170003
     93c:	00180003 	.word	0x00180003
     940:	00190003 	.word	0x00190003
     944:	00040003 	.word	0x00040003
     948:	00080003 	.word	0x00080003
     94c:	00100003 	.word	0x00100003
     950:	000c0003 	.word	0x000c0003
     954:	00160003 	.word	0x00160003

00000958 <_sercom_get_sercom_inst_index>:
 *
 * \return Index of given instance.
 */
uint8_t _sercom_get_sercom_inst_index(
		Sercom *const sercom_instance)
{
     958:	b530      	push	{r4, r5, lr}
     95a:	b087      	sub	sp, #28
	/* Save all available SERCOM instances for compare */
	Sercom *sercom_instances[SERCOM_INST_NUM] = SERCOM_INSTS;
     95c:	4b0b      	ldr	r3, [pc, #44]	; (98c <_sercom_get_sercom_inst_index+0x34>)
     95e:	466a      	mov	r2, sp
     960:	cb32      	ldmia	r3!, {r1, r4, r5}
     962:	c232      	stmia	r2!, {r1, r4, r5}
     964:	cb32      	ldmia	r3!, {r1, r4, r5}
     966:	c232      	stmia	r2!, {r1, r4, r5}

	/* Find index for sercom instance */
	for (uint32_t i = 0; i < SERCOM_INST_NUM; i++) {
		if ((uintptr_t)sercom_instance == (uintptr_t)sercom_instances[i]) {
     968:	9b00      	ldr	r3, [sp, #0]
     96a:	4283      	cmp	r3, r0
     96c:	d00b      	beq.n	986 <_sercom_get_sercom_inst_index+0x2e>
     96e:	2301      	movs	r3, #1
     970:	009a      	lsls	r2, r3, #2
     972:	4669      	mov	r1, sp
     974:	5852      	ldr	r2, [r2, r1]
     976:	4282      	cmp	r2, r0
     978:	d006      	beq.n	988 <_sercom_get_sercom_inst_index+0x30>
	for (uint32_t i = 0; i < SERCOM_INST_NUM; i++) {
     97a:	3301      	adds	r3, #1
     97c:	2b06      	cmp	r3, #6
     97e:	d1f7      	bne.n	970 <_sercom_get_sercom_inst_index+0x18>
		}
	}

	/* Invalid data given */
	Assert(false);
	return 0;
     980:	2000      	movs	r0, #0
}
     982:	b007      	add	sp, #28
     984:	bd30      	pop	{r4, r5, pc}
	for (uint32_t i = 0; i < SERCOM_INST_NUM; i++) {
     986:	2300      	movs	r3, #0
			return i;
     988:	b2d8      	uxtb	r0, r3
     98a:	e7fa      	b.n	982 <_sercom_get_sercom_inst_index+0x2a>
     98c:	00002978 	.word	0x00002978

00000990 <_sercom_default_handler>:
 */
static void _sercom_default_handler(
		const uint8_t instance)
{
	Assert(false);
}
     990:	4770      	bx	lr
	...

00000994 <_sercom_set_handler>:
 * \param[in]  interrupt_handler  Pointer to instance callback handler.
 */
void _sercom_set_handler(
		const uint8_t instance,
		const sercom_handler_t interrupt_handler)
{
     994:	b5f0      	push	{r4, r5, r6, r7, lr}
	/* Initialize handlers with default handler and device instances with 0 */
	if (_handler_table_initialized == false) {
     996:	4b0a      	ldr	r3, [pc, #40]	; (9c0 <_sercom_set_handler+0x2c>)
     998:	781b      	ldrb	r3, [r3, #0]
     99a:	2b00      	cmp	r3, #0
     99c:	d10c      	bne.n	9b8 <_sercom_set_handler+0x24>
		for (uint32_t i = 0; i < SERCOM_INST_NUM; i++) {
			_sercom_interrupt_handlers[i] = &_sercom_default_handler;
     99e:	4f09      	ldr	r7, [pc, #36]	; (9c4 <_sercom_set_handler+0x30>)
     9a0:	4e09      	ldr	r6, [pc, #36]	; (9c8 <_sercom_set_handler+0x34>)
			_sercom_instances[i] = NULL;
     9a2:	4d0a      	ldr	r5, [pc, #40]	; (9cc <_sercom_set_handler+0x38>)
     9a4:	2400      	movs	r4, #0
			_sercom_interrupt_handlers[i] = &_sercom_default_handler;
     9a6:	51de      	str	r6, [r3, r7]
			_sercom_instances[i] = NULL;
     9a8:	195a      	adds	r2, r3, r5
     9aa:	6014      	str	r4, [r2, #0]
     9ac:	3304      	adds	r3, #4
		for (uint32_t i = 0; i < SERCOM_INST_NUM; i++) {
     9ae:	2b18      	cmp	r3, #24
     9b0:	d1f9      	bne.n	9a6 <_sercom_set_handler+0x12>
		}

		_handler_table_initialized = true;
     9b2:	2201      	movs	r2, #1
     9b4:	4b02      	ldr	r3, [pc, #8]	; (9c0 <_sercom_set_handler+0x2c>)
     9b6:	701a      	strb	r2, [r3, #0]
	}

	/* Save interrupt handler */
	_sercom_interrupt_handlers[instance] = interrupt_handler;
     9b8:	0080      	lsls	r0, r0, #2
     9ba:	4b02      	ldr	r3, [pc, #8]	; (9c4 <_sercom_set_handler+0x30>)
     9bc:	50c1      	str	r1, [r0, r3]
}
     9be:	bdf0      	pop	{r4, r5, r6, r7, pc}
     9c0:	20000046 	.word	0x20000046
     9c4:	20000048 	.word	0x20000048
     9c8:	00000991 	.word	0x00000991
     9cc:	200000b0 	.word	0x200000b0

000009d0 <_sercom_get_interrupt_vector>:
 * \retval SYSTEM_INTERRUPT_MODULE_SERCOM6
 * \retval SYSTEM_INTERRUPT_MODULE_SERCOM7
 */
enum system_interrupt_vector _sercom_get_interrupt_vector(
		Sercom *const sercom_instance)
{
     9d0:	b500      	push	{lr}
     9d2:	b083      	sub	sp, #12
	const uint8_t sercom_int_vectors[SERCOM_INST_NUM] =
     9d4:	2307      	movs	r3, #7
     9d6:	466a      	mov	r2, sp
     9d8:	7013      	strb	r3, [r2, #0]
     9da:	3301      	adds	r3, #1
     9dc:	7053      	strb	r3, [r2, #1]
     9de:	3301      	adds	r3, #1
     9e0:	7093      	strb	r3, [r2, #2]
     9e2:	3301      	adds	r3, #1
     9e4:	70d3      	strb	r3, [r2, #3]
     9e6:	3301      	adds	r3, #1
     9e8:	7113      	strb	r3, [r2, #4]
     9ea:	3301      	adds	r3, #1
     9ec:	7153      	strb	r3, [r2, #5]
		{
			MREPEAT(SERCOM_INST_NUM, _SERCOM_INTERRUPT_VECT_NUM, ~)
		};

	/* Retrieve the index of the SERCOM being requested */
	uint8_t instance_index = _sercom_get_sercom_inst_index(sercom_instance);
     9ee:	4b03      	ldr	r3, [pc, #12]	; (9fc <_sercom_get_interrupt_vector+0x2c>)
     9f0:	4798      	blx	r3

	/* Get the vector number from the lookup table for the requested SERCOM */
	return (enum system_interrupt_vector)sercom_int_vectors[instance_index];
     9f2:	466b      	mov	r3, sp
     9f4:	5618      	ldrsb	r0, [r3, r0]
}
     9f6:	b003      	add	sp, #12
     9f8:	bd00      	pop	{pc}
     9fa:	46c0      	nop			; (mov r8, r8)
     9fc:	00000959 	.word	0x00000959

00000a00 <SERCOM0_Handler>:

/** Auto-generate a set of interrupt handlers for each SERCOM in the device */
MREPEAT(SERCOM_INST_NUM, _SERCOM_INTERRUPT_HANDLER, ~)
     a00:	b510      	push	{r4, lr}
     a02:	4b02      	ldr	r3, [pc, #8]	; (a0c <SERCOM0_Handler+0xc>)
     a04:	681b      	ldr	r3, [r3, #0]
     a06:	2000      	movs	r0, #0
     a08:	4798      	blx	r3
     a0a:	bd10      	pop	{r4, pc}
     a0c:	20000048 	.word	0x20000048

00000a10 <SERCOM1_Handler>:
     a10:	b510      	push	{r4, lr}
     a12:	4b02      	ldr	r3, [pc, #8]	; (a1c <SERCOM1_Handler+0xc>)
     a14:	685b      	ldr	r3, [r3, #4]
     a16:	2001      	movs	r0, #1
     a18:	4798      	blx	r3
     a1a:	bd10      	pop	{r4, pc}
     a1c:	20000048 	.word	0x20000048

00000a20 <SERCOM2_Handler>:
     a20:	b510      	push	{r4, lr}
     a22:	4b02      	ldr	r3, [pc, #8]	; (a2c <SERCOM2_Handler+0xc>)
     a24:	689b      	ldr	r3, [r3, #8]
     a26:	2002      	movs	r0, #2
     a28:	4798      	blx	r3
     a2a:	bd10      	pop	{r4, pc}
     a2c:	20000048 	.word	0x20000048

00000a30 <SERCOM3_Handler>:
     a30:	b510      	push	{r4, lr}
     a32:	4b02      	ldr	r3, [pc, #8]	; (a3c <SERCOM3_Handler+0xc>)
     a34:	68db      	ldr	r3, [r3, #12]
     a36:	2003      	movs	r0, #3
     a38:	4798      	blx	r3
     a3a:	bd10      	pop	{r4, pc}
     a3c:	20000048 	.word	0x20000048

00000a40 <SERCOM4_Handler>:
     a40:	b510      	push	{r4, lr}
     a42:	4b02      	ldr	r3, [pc, #8]	; (a4c <SERCOM4_Handler+0xc>)
     a44:	691b      	ldr	r3, [r3, #16]
     a46:	2004      	movs	r0, #4
     a48:	4798      	blx	r3
     a4a:	bd10      	pop	{r4, pc}
     a4c:	20000048 	.word	0x20000048

00000a50 <SERCOM5_Handler>:
     a50:	b510      	push	{r4, lr}
     a52:	4b02      	ldr	r3, [pc, #8]	; (a5c <SERCOM5_Handler+0xc>)
     a54:	695b      	ldr	r3, [r3, #20]
     a56:	2005      	movs	r0, #5
     a58:	4798      	blx	r3
     a5a:	bd10      	pop	{r4, pc}
     a5c:	20000048 	.word	0x20000048

00000a60 <spi_init>:
 */
enum status_code spi_init(
		struct spi_module *const module,
		Sercom *const hw,
		const struct spi_config *const config)
{
     a60:	b5f0      	push	{r4, r5, r6, r7, lr}
     a62:	46d6      	mov	lr, sl
     a64:	464f      	mov	r7, r9
     a66:	b580      	push	{r7, lr}
     a68:	b08b      	sub	sp, #44	; 0x2c
     a6a:	4681      	mov	r9, r0
     a6c:	000f      	movs	r7, r1
     a6e:	0014      	movs	r4, r2
	Assert(module);
	Assert(hw);
	Assert(config);

	/* Initialize device instance */
	module->hw = hw;
     a70:	0003      	movs	r3, r0
     a72:	6019      	str	r1, [r3, #0]

	SercomSpi *const spi_module = &(module->hw->SPI);

	/* Check if module is enabled. */
	if (spi_module->CTRLA.reg & SERCOM_SPI_CTRLA_ENABLE) {
     a74:	680b      	ldr	r3, [r1, #0]
     a76:	079b      	lsls	r3, r3, #30
     a78:	d409      	bmi.n	a8e <spi_init+0x2e>
		return STATUS_ERR_DENIED;
#  endif
	}

	/* Check if reset is in progress. */
	if (spi_module->CTRLA.reg & SERCOM_SPI_CTRLA_SWRST){
     a7a:	680b      	ldr	r3, [r1, #0]
		return STATUS_BUSY;
     a7c:	2005      	movs	r0, #5
	if (spi_module->CTRLA.reg & SERCOM_SPI_CTRLA_SWRST){
     a7e:	07db      	lsls	r3, r3, #31
     a80:	d400      	bmi.n	a84 <spi_init+0x24>
     a82:	e0a4      	b.n	bce <spi_init+0x16e>
	_sercom_instances[instance_index] = module;
#endif

	/* Write configuration to module and return status code */
	return _spi_set_config(module, config);
}
     a84:	b00b      	add	sp, #44	; 0x2c
     a86:	bc0c      	pop	{r2, r3}
     a88:	4691      	mov	r9, r2
     a8a:	469a      	mov	sl, r3
     a8c:	bdf0      	pop	{r4, r5, r6, r7, pc}
	uint32_t pad_pinmuxes[] = {
     a8e:	6a53      	ldr	r3, [r2, #36]	; 0x24
     a90:	9305      	str	r3, [sp, #20]
     a92:	6a93      	ldr	r3, [r2, #40]	; 0x28
     a94:	9306      	str	r3, [sp, #24]
     a96:	6ad3      	ldr	r3, [r2, #44]	; 0x2c
     a98:	9307      	str	r3, [sp, #28]
     a9a:	6b13      	ldr	r3, [r2, #48]	; 0x30
     a9c:	9308      	str	r3, [sp, #32]
     a9e:	2600      	movs	r6, #0
		uint32_t current_pinmux = pad_pinmuxes[pad];
     aa0:	ab05      	add	r3, sp, #20
     aa2:	9301      	str	r3, [sp, #4]
     aa4:	e00a      	b.n	abc <spi_init+0x5c>
			current_pinmux = _sercom_get_default_pad(hw, pad);
     aa6:	0038      	movs	r0, r7
     aa8:	4ba1      	ldr	r3, [pc, #644]	; (d30 <spi_init+0x2d0>)
     aaa:	4798      	blx	r3
     aac:	e00c      	b.n	ac8 <spi_init+0x68>

	if (pin_index & 1) {
		return (pmux_reg & PORT_PMUX_PMUXO_Msk) >> PORT_PMUX_PMUXO_Pos;
	}
	else {
		return (pmux_reg & PORT_PMUX_PMUXE_Msk) >> PORT_PMUX_PMUXE_Pos;
     aae:	230f      	movs	r3, #15
     ab0:	4018      	ands	r0, r3
		if ((current_pinmux & 0xFFFF) !=
     ab2:	4281      	cmp	r1, r0
     ab4:	d12d      	bne.n	b12 <spi_init+0xb2>
     ab6:	3601      	adds	r6, #1
	for (uint8_t pad = 0; pad < 4; pad++) {
     ab8:	2e04      	cmp	r6, #4
     aba:	d02f      	beq.n	b1c <spi_init+0xbc>
     abc:	b2f1      	uxtb	r1, r6
		uint32_t current_pinmux = pad_pinmuxes[pad];
     abe:	00b3      	lsls	r3, r6, #2
     ac0:	9a01      	ldr	r2, [sp, #4]
     ac2:	5898      	ldr	r0, [r3, r2]
		if (current_pinmux == PINMUX_DEFAULT) {
     ac4:	2800      	cmp	r0, #0
     ac6:	d0ee      	beq.n	aa6 <spi_init+0x46>
		if (current_pinmux == PINMUX_UNUSED) {
     ac8:	1c43      	adds	r3, r0, #1
     aca:	d0f4      	beq.n	ab6 <spi_init+0x56>
		if ((current_pinmux & 0xFFFF) !=
     acc:	0401      	lsls	r1, r0, #16
     ace:	0c09      	lsrs	r1, r1, #16
				system_pinmux_pin_get_mux_position(current_pinmux >> 16)) {
     ad0:	0c00      	lsrs	r0, r0, #16
	if (port_index < PORT_INST_NUM) {
     ad2:	b2c3      	uxtb	r3, r0
     ad4:	469c      	mov	ip, r3
		return NULL;
     ad6:	2300      	movs	r3, #0
	if (port_index < PORT_INST_NUM) {
     ad8:	0602      	lsls	r2, r0, #24
     ada:	d405      	bmi.n	ae8 <spi_init+0x88>
		return &(ports[port_index]->Group[group_index]);
     adc:	4663      	mov	r3, ip
     ade:	095b      	lsrs	r3, r3, #5
     ae0:	01db      	lsls	r3, r3, #7
     ae2:	4a94      	ldr	r2, [pc, #592]	; (d34 <spi_init+0x2d4>)
     ae4:	4692      	mov	sl, r2
     ae6:	4453      	add	r3, sl
	uint32_t pin_index = (gpio_pin % 32);
     ae8:	221f      	movs	r2, #31
     aea:	4660      	mov	r0, ip
     aec:	4002      	ands	r2, r0
	if (!(port->PINCFG[pin_index].reg & PORT_PINCFG_PMUXEN)) {
     aee:	1898      	adds	r0, r3, r2
     af0:	3040      	adds	r0, #64	; 0x40
     af2:	7800      	ldrb	r0, [r0, #0]
     af4:	4682      	mov	sl, r0
		return SYSTEM_PINMUX_GPIO;
     af6:	2080      	movs	r0, #128	; 0x80
	if (!(port->PINCFG[pin_index].reg & PORT_PINCFG_PMUXEN)) {
     af8:	4655      	mov	r5, sl
     afa:	07ed      	lsls	r5, r5, #31
     afc:	d5d9      	bpl.n	ab2 <spi_init+0x52>
	uint32_t pmux_reg = port->PMUX[pin_index / 2].reg;
     afe:	0852      	lsrs	r2, r2, #1
     b00:	189b      	adds	r3, r3, r2
     b02:	3330      	adds	r3, #48	; 0x30
     b04:	7818      	ldrb	r0, [r3, #0]
     b06:	b2c0      	uxtb	r0, r0
	if (pin_index & 1) {
     b08:	4663      	mov	r3, ip
     b0a:	07db      	lsls	r3, r3, #31
     b0c:	d5cf      	bpl.n	aae <spi_init+0x4e>
		return (pmux_reg & PORT_PMUX_PMUXO_Msk) >> PORT_PMUX_PMUXO_Pos;
     b0e:	0900      	lsrs	r0, r0, #4
     b10:	e7cf      	b.n	ab2 <spi_init+0x52>
			module->hw = NULL;
     b12:	2300      	movs	r3, #0
     b14:	464a      	mov	r2, r9
     b16:	6013      	str	r3, [r2, #0]
			return STATUS_ERR_DENIED;
     b18:	201c      	movs	r0, #28
     b1a:	e7b3      	b.n	a84 <spi_init+0x24>
	uint32_t external_clock = system_gclk_chan_get_hz(SERCOM_GCLK_ID);
     b1c:	200c      	movs	r0, #12
     b1e:	4b86      	ldr	r3, [pc, #536]	; (d38 <spi_init+0x2d8>)
     b20:	4798      	blx	r3
	if (config->mode == SPI_MODE_MASTER) {
     b22:	7822      	ldrb	r2, [r4, #0]
	uint32_t ctrla = 0;
     b24:	2500      	movs	r5, #0
	if (config->mode == SPI_MODE_MASTER) {
     b26:	2a01      	cmp	r2, #1
     b28:	d015      	beq.n	b56 <spi_init+0xf6>
	if (config->mode == SPI_MODE_SLAVE) {
     b2a:	7821      	ldrb	r1, [r4, #0]
     b2c:	2900      	cmp	r1, #0
     b2e:	d126      	bne.n	b7e <spi_init+0x11e>
		if (spi_module->CTRLA.reg != addr) {
     b30:	683b      	ldr	r3, [r7, #0]
				(config->mode_specific.slave.address_mask << SERCOM_SPI_ADDR_ADDRMASK_Pos);
     b32:	7ee2      	ldrb	r2, [r4, #27]
     b34:	0412      	lsls	r2, r2, #16
		addr |= (config->mode_specific.slave.address      << SERCOM_SPI_ADDR_ADDR_Pos) |
     b36:	7ea0      	ldrb	r0, [r4, #26]
     b38:	4302      	orrs	r2, r0
			return STATUS_ERR_DENIED;
     b3a:	201c      	movs	r0, #28
		if (spi_module->CTRLA.reg != addr) {
     b3c:	429a      	cmp	r2, r3
     b3e:	d1a1      	bne.n	a84 <spi_init+0x24>
		ctrla |= config->mode_specific.slave.frame_format;
     b40:	6963      	ldr	r3, [r4, #20]
		ctrlb |= config->mode_specific.slave.address_mode;
     b42:	8b22      	ldrh	r2, [r4, #24]
		if (config->mode_specific.slave.preload_enable) {
     b44:	7f20      	ldrb	r0, [r4, #28]
     b46:	2800      	cmp	r0, #0
     b48:	d001      	beq.n	b4e <spi_init+0xee>
     b4a:	2040      	movs	r0, #64	; 0x40
     b4c:	4302      	orrs	r2, r0
		ctrla |= SERCOM_SPI_CTRLA_MODE(0x2);
     b4e:	2008      	movs	r0, #8
     b50:	4303      	orrs	r3, r0
     b52:	431d      	orrs	r5, r3
     b54:	e014      	b.n	b80 <spi_init+0x120>
		enum status_code error_code = _sercom_get_sync_baud_val(
     b56:	aa04      	add	r2, sp, #16
     b58:	0001      	movs	r1, r0
     b5a:	6960      	ldr	r0, [r4, #20]
     b5c:	4b77      	ldr	r3, [pc, #476]	; (d3c <spi_init+0x2dc>)
     b5e:	4798      	blx	r3
     b60:	0003      	movs	r3, r0
			return STATUS_ERR_INVALID_ARG;
     b62:	2017      	movs	r0, #23
		if (error_code != STATUS_OK) {
     b64:	2b00      	cmp	r3, #0
     b66:	d000      	beq.n	b6a <spi_init+0x10a>
     b68:	e78c      	b.n	a84 <spi_init+0x24>
		if (spi_module->BAUD.reg !=  (uint8_t)baud) {
     b6a:	7abb      	ldrb	r3, [r7, #10]
     b6c:	b2db      	uxtb	r3, r3
     b6e:	aa04      	add	r2, sp, #16
     b70:	7812      	ldrb	r2, [r2, #0]
			return STATUS_ERR_DENIED;
     b72:	3005      	adds	r0, #5
		if (spi_module->BAUD.reg !=  (uint8_t)baud) {
     b74:	429a      	cmp	r2, r3
     b76:	d000      	beq.n	b7a <spi_init+0x11a>
     b78:	e784      	b.n	a84 <spi_init+0x24>
		ctrla |= SERCOM_SPI_CTRLA_MODE(0x3);
     b7a:	350c      	adds	r5, #12
     b7c:	e7d5      	b.n	b2a <spi_init+0xca>
	uint32_t ctrlb = 0;
     b7e:	2200      	movs	r2, #0
	ctrla |= config->mux_setting;
     b80:	6863      	ldr	r3, [r4, #4]
     b82:	68a0      	ldr	r0, [r4, #8]
     b84:	4303      	orrs	r3, r0
     b86:	68e0      	ldr	r0, [r4, #12]
     b88:	4303      	orrs	r3, r0
     b8a:	432b      	orrs	r3, r5
	ctrlb |= config->character_size;
     b8c:	7c20      	ldrb	r0, [r4, #16]
     b8e:	4302      	orrs	r2, r0
	if (config->run_in_standby) {
     b90:	7c60      	ldrb	r0, [r4, #17]
     b92:	2800      	cmp	r0, #0
     b94:	d001      	beq.n	b9a <spi_init+0x13a>
		ctrla |= SERCOM_SPI_CTRLA_RUNSTDBY;
     b96:	2080      	movs	r0, #128	; 0x80
     b98:	4303      	orrs	r3, r0
	if (config->receiver_enable) {
     b9a:	7ca0      	ldrb	r0, [r4, #18]
     b9c:	2800      	cmp	r0, #0
     b9e:	d002      	beq.n	ba6 <spi_init+0x146>
		ctrlb |= SERCOM_SPI_CTRLB_RXEN;
     ba0:	2080      	movs	r0, #128	; 0x80
     ba2:	0280      	lsls	r0, r0, #10
     ba4:	4302      	orrs	r2, r0
	if (spi_module->CTRLA.reg == ctrla &&
     ba6:	6838      	ldr	r0, [r7, #0]
	ctrla |= SERCOM_SPI_CTRLA_ENABLE;
     ba8:	2502      	movs	r5, #2
     baa:	432b      	orrs	r3, r5
	if (spi_module->CTRLA.reg == ctrla &&
     bac:	4283      	cmp	r3, r0
     bae:	d004      	beq.n	bba <spi_init+0x15a>
	module->hw = NULL;
     bb0:	2300      	movs	r3, #0
     bb2:	464a      	mov	r2, r9
     bb4:	6013      	str	r3, [r2, #0]
	return STATUS_ERR_DENIED;
     bb6:	201c      	movs	r0, #28
     bb8:	e764      	b.n	a84 <spi_init+0x24>
			spi_module->CTRLB.reg == ctrlb) {
     bba:	687b      	ldr	r3, [r7, #4]
	if (spi_module->CTRLA.reg == ctrla &&
     bbc:	4293      	cmp	r3, r2
     bbe:	d1f7      	bne.n	bb0 <spi_init+0x150>
		module->mode           = config->mode;
     bc0:	464b      	mov	r3, r9
     bc2:	7159      	strb	r1, [r3, #5]
		module->character_size = config->character_size;
     bc4:	7c23      	ldrb	r3, [r4, #16]
     bc6:	464a      	mov	r2, r9
     bc8:	7193      	strb	r3, [r2, #6]
		return STATUS_OK;
     bca:	2000      	movs	r0, #0
     bcc:	e75a      	b.n	a84 <spi_init+0x24>
	uint32_t sercom_index = _sercom_get_sercom_inst_index(module->hw);
     bce:	0008      	movs	r0, r1
     bd0:	4b5b      	ldr	r3, [pc, #364]	; (d40 <spi_init+0x2e0>)
     bd2:	4798      	blx	r3
     bd4:	4a5b      	ldr	r2, [pc, #364]	; (d44 <spi_init+0x2e4>)
     bd6:	6a11      	ldr	r1, [r2, #32]
	pm_index     = sercom_index + PM_APBCMASK_SERCOM0_Pos;
     bd8:	1c85      	adds	r5, r0, #2
	system_apb_clock_set_mask(SYSTEM_CLOCK_APB_APBC, 1 << pm_index);
     bda:	2301      	movs	r3, #1
     bdc:	40ab      	lsls	r3, r5
     bde:	430b      	orrs	r3, r1
     be0:	6213      	str	r3, [r2, #32]
	gclk_chan_conf.source_generator = config->generator_source;
     be2:	a909      	add	r1, sp, #36	; 0x24
     be4:	2620      	movs	r6, #32
     be6:	5da3      	ldrb	r3, [r4, r6]
     be8:	700b      	strb	r3, [r1, #0]
	gclk_index   = sercom_index + SERCOM0_GCLK_ID_CORE;
     bea:	300d      	adds	r0, #13
	system_gclk_chan_set_config(gclk_index, &gclk_chan_conf);
     bec:	b2c5      	uxtb	r5, r0
     bee:	0028      	movs	r0, r5
     bf0:	4b55      	ldr	r3, [pc, #340]	; (d48 <spi_init+0x2e8>)
     bf2:	4798      	blx	r3
	system_gclk_chan_enable(gclk_index);
     bf4:	0028      	movs	r0, r5
     bf6:	4b55      	ldr	r3, [pc, #340]	; (d4c <spi_init+0x2ec>)
     bf8:	4798      	blx	r3
	sercom_set_gclk_generator(config->generator_source, false);
     bfa:	5da0      	ldrb	r0, [r4, r6]
     bfc:	2100      	movs	r1, #0
     bfe:	4b54      	ldr	r3, [pc, #336]	; (d50 <spi_init+0x2f0>)
     c00:	4798      	blx	r3
	if (config->mode == SPI_MODE_MASTER) {
     c02:	7823      	ldrb	r3, [r4, #0]
     c04:	2b01      	cmp	r3, #1
     c06:	d020      	beq.n	c4a <spi_init+0x1ea>
	if (config->mode == SPI_MODE_SLAVE) {
     c08:	7823      	ldrb	r3, [r4, #0]
     c0a:	2b00      	cmp	r3, #0
     c0c:	d103      	bne.n	c16 <spi_init+0x1b6>
		spi_module->CTRLA.reg |= SERCOM_SPI_CTRLA_MODE(0x2);
     c0e:	683b      	ldr	r3, [r7, #0]
     c10:	2208      	movs	r2, #8
     c12:	4313      	orrs	r3, r2
     c14:	603b      	str	r3, [r7, #0]
	SercomSpi *const spi_module = &(module->hw->SPI);
     c16:	464b      	mov	r3, r9
     c18:	681e      	ldr	r6, [r3, #0]
	config->mux_position = SYSTEM_PINMUX_GPIO;
     c1a:	ab04      	add	r3, sp, #16
     c1c:	2280      	movs	r2, #128	; 0x80
     c1e:	701a      	strb	r2, [r3, #0]
	config->direction    = SYSTEM_PINMUX_PIN_DIR_INPUT;
     c20:	2200      	movs	r2, #0
     c22:	705a      	strb	r2, [r3, #1]
	config->input_pull   = SYSTEM_PINMUX_PIN_PULL_UP;
     c24:	2101      	movs	r1, #1
     c26:	7099      	strb	r1, [r3, #2]
	config->powersave    = false;
     c28:	70da      	strb	r2, [r3, #3]
	if(config->mode == SPI_MODE_SLAVE) {
     c2a:	7823      	ldrb	r3, [r4, #0]
     c2c:	2b00      	cmp	r3, #0
     c2e:	d101      	bne.n	c34 <spi_init+0x1d4>
		pin_conf.input_pull = SYSTEM_PINMUX_PIN_PULL_NONE;
     c30:	ab04      	add	r3, sp, #16
     c32:	709a      	strb	r2, [r3, #2]
	uint32_t pad_pinmuxes[] = {
     c34:	6a63      	ldr	r3, [r4, #36]	; 0x24
     c36:	9305      	str	r3, [sp, #20]
     c38:	6aa3      	ldr	r3, [r4, #40]	; 0x28
     c3a:	9306      	str	r3, [sp, #24]
     c3c:	6ae3      	ldr	r3, [r4, #44]	; 0x2c
     c3e:	9307      	str	r3, [sp, #28]
     c40:	6b23      	ldr	r3, [r4, #48]	; 0x30
     c42:	9308      	str	r3, [sp, #32]
     c44:	2700      	movs	r7, #0
		uint32_t current_pinmux = pad_pinmuxes[pad];
     c46:	ad05      	add	r5, sp, #20
     c48:	e011      	b.n	c6e <spi_init+0x20e>
		spi_module->CTRLA.reg |= SERCOM_SPI_CTRLA_MODE(0x3);
     c4a:	683b      	ldr	r3, [r7, #0]
     c4c:	220c      	movs	r2, #12
     c4e:	4313      	orrs	r3, r2
     c50:	603b      	str	r3, [r7, #0]
     c52:	e7d9      	b.n	c08 <spi_init+0x1a8>
			current_pinmux = _sercom_get_default_pad(hw, pad);
     c54:	0030      	movs	r0, r6
     c56:	4b36      	ldr	r3, [pc, #216]	; (d30 <spi_init+0x2d0>)
     c58:	4798      	blx	r3
     c5a:	e00d      	b.n	c78 <spi_init+0x218>
			pin_conf.mux_position = current_pinmux & 0xFFFF;
     c5c:	a904      	add	r1, sp, #16
     c5e:	7008      	strb	r0, [r1, #0]
			system_pinmux_pin_set_config(current_pinmux >> 16, &pin_conf);
     c60:	0c00      	lsrs	r0, r0, #16
     c62:	b2c0      	uxtb	r0, r0
     c64:	4b3b      	ldr	r3, [pc, #236]	; (d54 <spi_init+0x2f4>)
     c66:	4798      	blx	r3
     c68:	3701      	adds	r7, #1
	for (uint8_t pad = 0; pad < 4; pad++) {
     c6a:	2f04      	cmp	r7, #4
     c6c:	d007      	beq.n	c7e <spi_init+0x21e>
     c6e:	b2f9      	uxtb	r1, r7
		uint32_t current_pinmux = pad_pinmuxes[pad];
     c70:	00bb      	lsls	r3, r7, #2
     c72:	5958      	ldr	r0, [r3, r5]
		if (current_pinmux == PINMUX_DEFAULT) {
     c74:	2800      	cmp	r0, #0
     c76:	d0ed      	beq.n	c54 <spi_init+0x1f4>
		if (current_pinmux != PINMUX_UNUSED) {
     c78:	1c43      	adds	r3, r0, #1
     c7a:	d1ef      	bne.n	c5c <spi_init+0x1fc>
     c7c:	e7f4      	b.n	c68 <spi_init+0x208>
	module->mode             = config->mode;
     c7e:	7823      	ldrb	r3, [r4, #0]
     c80:	464a      	mov	r2, r9
     c82:	7153      	strb	r3, [r2, #5]
	module->character_size   = config->character_size;
     c84:	7c23      	ldrb	r3, [r4, #16]
     c86:	7193      	strb	r3, [r2, #6]
	module->receiver_enabled = config->receiver_enable;
     c88:	7ca3      	ldrb	r3, [r4, #18]
     c8a:	71d3      	strb	r3, [r2, #7]
	uint16_t baud = 0;
     c8c:	2200      	movs	r2, #0
     c8e:	ab02      	add	r3, sp, #8
     c90:	80da      	strh	r2, [r3, #6]
	if (config->mode == SPI_MODE_MASTER) {
     c92:	7823      	ldrb	r3, [r4, #0]
     c94:	2b01      	cmp	r3, #1
     c96:	d012      	beq.n	cbe <spi_init+0x25e>
	if (config->mode == SPI_MODE_SLAVE) {
     c98:	7823      	ldrb	r3, [r4, #0]
     c9a:	2b00      	cmp	r3, #0
     c9c:	d127      	bne.n	cee <spi_init+0x28e>
		ctrla = config->mode_specific.slave.frame_format;
     c9e:	6960      	ldr	r0, [r4, #20]
		ctrlb = config->mode_specific.slave.address_mode;
     ca0:	8b22      	ldrh	r2, [r4, #24]
		spi_module->ADDR.reg |=
     ca2:	6973      	ldr	r3, [r6, #20]
				(config->mode_specific.slave.address_mask << SERCOM_SPI_ADDR_ADDRMASK_Pos);
     ca4:	7ee1      	ldrb	r1, [r4, #27]
     ca6:	0409      	lsls	r1, r1, #16
				(config->mode_specific.slave.address      << SERCOM_SPI_ADDR_ADDR_Pos) |
     ca8:	7ea5      	ldrb	r5, [r4, #26]
     caa:	4329      	orrs	r1, r5
		spi_module->ADDR.reg |=
     cac:	4319      	orrs	r1, r3
     cae:	6171      	str	r1, [r6, #20]
		if (config->mode_specific.slave.preload_enable) {
     cb0:	7f23      	ldrb	r3, [r4, #28]
		ctrlb = config->mode_specific.slave.address_mode;
     cb2:	0011      	movs	r1, r2
		if (config->mode_specific.slave.preload_enable) {
     cb4:	2b00      	cmp	r3, #0
     cb6:	d01c      	beq.n	cf2 <spi_init+0x292>
			ctrlb |= SERCOM_SPI_CTRLB_PLOADEN;
     cb8:	2140      	movs	r1, #64	; 0x40
     cba:	4311      	orrs	r1, r2
     cbc:	e019      	b.n	cf2 <spi_init+0x292>
		uint32_t sercom_index = _sercom_get_sercom_inst_index(module->hw);
     cbe:	464b      	mov	r3, r9
     cc0:	6818      	ldr	r0, [r3, #0]
     cc2:	4b1f      	ldr	r3, [pc, #124]	; (d40 <spi_init+0x2e0>)
     cc4:	4798      	blx	r3
		uint32_t gclk_index   = sercom_index + SERCOM0_GCLK_ID_CORE;
     cc6:	300d      	adds	r0, #13
		uint32_t internal_clock = system_gclk_chan_get_hz(gclk_index);
     cc8:	b2c0      	uxtb	r0, r0
     cca:	4b1b      	ldr	r3, [pc, #108]	; (d38 <spi_init+0x2d8>)
     ccc:	4798      	blx	r3
     cce:	0001      	movs	r1, r0
		enum status_code error_code = _sercom_get_sync_baud_val(
     cd0:	ab02      	add	r3, sp, #8
     cd2:	1d9a      	adds	r2, r3, #6
     cd4:	6960      	ldr	r0, [r4, #20]
     cd6:	4b19      	ldr	r3, [pc, #100]	; (d3c <spi_init+0x2dc>)
     cd8:	4798      	blx	r3
     cda:	0003      	movs	r3, r0
			return STATUS_ERR_INVALID_ARG;
     cdc:	2017      	movs	r0, #23
		if (error_code != STATUS_OK) {
     cde:	2b00      	cmp	r3, #0
     ce0:	d000      	beq.n	ce4 <spi_init+0x284>
     ce2:	e6cf      	b.n	a84 <spi_init+0x24>
		spi_module->BAUD.reg = (uint8_t)baud;
     ce4:	ab02      	add	r3, sp, #8
     ce6:	3306      	adds	r3, #6
     ce8:	781b      	ldrb	r3, [r3, #0]
     cea:	72b3      	strb	r3, [r6, #10]
     cec:	e7d4      	b.n	c98 <spi_init+0x238>
	uint32_t ctrlb = 0;
     cee:	2100      	movs	r1, #0
	uint32_t ctrla = 0;
     cf0:	2000      	movs	r0, #0
	ctrla |= config->mux_setting;
     cf2:	6863      	ldr	r3, [r4, #4]
     cf4:	68a2      	ldr	r2, [r4, #8]
     cf6:	4313      	orrs	r3, r2
     cf8:	68e2      	ldr	r2, [r4, #12]
     cfa:	4313      	orrs	r3, r2
     cfc:	4303      	orrs	r3, r0
	ctrlb |= config->character_size;
     cfe:	7c22      	ldrb	r2, [r4, #16]
     d00:	430a      	orrs	r2, r1
	if (config->run_in_standby || system_is_debugger_present()) {
     d02:	7c61      	ldrb	r1, [r4, #17]
     d04:	2900      	cmp	r1, #0
     d06:	d103      	bne.n	d10 <spi_init+0x2b0>
 * \retval false Debugger is not connected to the system
 *
 */
static inline bool system_is_debugger_present(void)
{
	return DSU->STATUSB.reg & DSU_STATUSB_DBGPRES;
     d08:	4913      	ldr	r1, [pc, #76]	; (d58 <spi_init+0x2f8>)
     d0a:	7889      	ldrb	r1, [r1, #2]
     d0c:	0789      	lsls	r1, r1, #30
     d0e:	d501      	bpl.n	d14 <spi_init+0x2b4>
		ctrla |= SERCOM_SPI_CTRLA_RUNSTDBY;
     d10:	2180      	movs	r1, #128	; 0x80
     d12:	430b      	orrs	r3, r1
	if (config->receiver_enable) {
     d14:	7ca1      	ldrb	r1, [r4, #18]
     d16:	2900      	cmp	r1, #0
     d18:	d002      	beq.n	d20 <spi_init+0x2c0>
		ctrlb |= SERCOM_SPI_CTRLB_RXEN;
     d1a:	2180      	movs	r1, #128	; 0x80
     d1c:	0289      	lsls	r1, r1, #10
     d1e:	430a      	orrs	r2, r1
	spi_module->CTRLA.reg |= ctrla;
     d20:	6831      	ldr	r1, [r6, #0]
     d22:	430b      	orrs	r3, r1
     d24:	6033      	str	r3, [r6, #0]
	spi_module->CTRLB.reg |= ctrlb;
     d26:	6873      	ldr	r3, [r6, #4]
     d28:	431a      	orrs	r2, r3
     d2a:	6072      	str	r2, [r6, #4]
	return STATUS_OK;
     d2c:	2000      	movs	r0, #0
     d2e:	e6a9      	b.n	a84 <spi_init+0x24>
     d30:	000007e1 	.word	0x000007e1
     d34:	41004400 	.word	0x41004400
     d38:	00001fbd 	.word	0x00001fbd
     d3c:	000006d7 	.word	0x000006d7
     d40:	00000959 	.word	0x00000959
     d44:	40000400 	.word	0x40000400
     d48:	00001fa1 	.word	0x00001fa1
     d4c:	00001f15 	.word	0x00001f15
     d50:	00000795 	.word	0x00000795
     d54:	00002099 	.word	0x00002099
     d58:	41002000 	.word	0x41002000

00000d5c <spi_write_buffer_wait>:
 */
enum status_code spi_write_buffer_wait(
		struct spi_module *const module,
		const uint8_t *tx_data,
		uint16_t length)
{
     d5c:	b5f0      	push	{r4, r5, r6, r7, lr}
     d5e:	46de      	mov	lr, fp
     d60:	4657      	mov	r7, sl
     d62:	464e      	mov	r6, r9
     d64:	4645      	mov	r5, r8
     d66:	b5e0      	push	{r5, r6, r7, lr}
     d68:	b083      	sub	sp, #12
		return STATUS_BUSY;
	}
#  endif

	if (length == 0) {
		return STATUS_ERR_INVALID_ARG;
     d6a:	2317      	movs	r3, #23
	if (length == 0) {
     d6c:	2a00      	cmp	r2, #0
     d6e:	d107      	bne.n	d80 <spi_write_buffer_wait+0x24>
			}
		}
	}
#  endif
	return STATUS_OK;
}
     d70:	0018      	movs	r0, r3
     d72:	b003      	add	sp, #12
     d74:	bc3c      	pop	{r2, r3, r4, r5}
     d76:	4690      	mov	r8, r2
     d78:	4699      	mov	r9, r3
     d7a:	46a2      	mov	sl, r4
     d7c:	46ab      	mov	fp, r5
     d7e:	bdf0      	pop	{r4, r5, r6, r7, pc}
	if ((module->mode == SPI_MODE_SLAVE) && (spi_is_write_complete(module))) {
     d80:	7943      	ldrb	r3, [r0, #5]
     d82:	2b00      	cmp	r3, #0
     d84:	d103      	bne.n	d8e <spi_write_buffer_wait+0x32>
{
	/* Sanity check arguments */
	Assert(module);
	Assert(module->hw);

	SercomSpi *const spi_module = &(module->hw->SPI);
     d86:	6803      	ldr	r3, [r0, #0]

	/* Check interrupt flag */
	return (spi_module->INTFLAG.reg & SERCOM_SPI_INTFLAG_TXC);
     d88:	7b9c      	ldrb	r4, [r3, #14]
     d8a:	07a4      	lsls	r4, r4, #30
     d8c:	d40a      	bmi.n	da4 <spi_write_buffer_wait+0x48>
						data_to_send = tx_data[tx_pos++];
     d8e:	4693      	mov	fp, r2
     d90:	2400      	movs	r4, #0
				if (spi_is_ready_to_write(module)) {
     d92:	2301      	movs	r3, #1
			if (spi_is_write_complete(module)) {
     d94:	2502      	movs	r5, #2
     d96:	46ac      	mov	ip, r5
					if (spi_is_ready_to_read(module)) {
     d98:	3502      	adds	r5, #2
     d9a:	46a8      	mov	r8, r5
     d9c:	3a01      	subs	r2, #1
     d9e:	b292      	uxth	r2, r2
     da0:	468a      	mov	sl, r1
     da2:	e023      	b.n	dec <spi_write_buffer_wait+0x90>
	spi_module->INTFLAG.reg = SPI_INTERRUPT_FLAG_TX_COMPLETE;
     da4:	2402      	movs	r4, #2
     da6:	739c      	strb	r4, [r3, #14]
     da8:	e7f1      	b.n	d8e <spi_write_buffer_wait+0x32>
     daa:	7bb5      	ldrb	r5, [r6, #14]
			if (spi_is_write_complete(module)) {
     dac:	4661      	mov	r1, ip
     dae:	420d      	tst	r5, r1
     db0:	d12e      	bne.n	e10 <spi_write_buffer_wait+0xb4>
	Assert(module->hw);

	SercomSpi *const spi_module = &(module->hw->SPI);

	/* Check interrupt flag */
	return (spi_module->INTFLAG.reg & SERCOM_SPI_INTFLAG_DRE);
     db2:	7bb5      	ldrb	r5, [r6, #14]
			if (!spi_is_ready_to_write(module)) {
     db4:	421d      	tst	r5, r3
     db6:	d100      	bne.n	dba <spi_write_buffer_wait+0x5e>
     db8:	e0c2      	b.n	f40 <spi_write_buffer_wait+0x1e4>
	SercomSpi *const spi_module = &(module->hw->SPI);
     dba:	6806      	ldr	r6, [r0, #0]
	return (spi_module->INTFLAG.reg & SERCOM_SPI_INTFLAG_DRE);
     dbc:	7bb5      	ldrb	r5, [r6, #14]
		while (!spi_is_ready_to_write(module)) {
     dbe:	421d      	tst	r5, r3
     dc0:	d0fc      	beq.n	dbc <spi_write_buffer_wait+0x60>
		uint16_t data_to_send = tx_data[tx_pos++];
     dc2:	1c67      	adds	r7, r4, #1
     dc4:	b2bf      	uxth	r7, r7
     dc6:	4651      	mov	r1, sl
     dc8:	5d0d      	ldrb	r5, [r1, r4]
		if (module->character_size == SPI_CHARACTER_SIZE_9BIT) {
     dca:	7981      	ldrb	r1, [r0, #6]
     dcc:	2901      	cmp	r1, #1
     dce:	d023      	beq.n	e18 <spi_write_buffer_wait+0xbc>
		uint16_t data_to_send = tx_data[tx_pos++];
     dd0:	b2ad      	uxth	r5, r5
     dd2:	003c      	movs	r4, r7
     dd4:	7bb7      	ldrb	r7, [r6, #14]
	Assert(module->hw);

	SercomSpi *const spi_module = &(module->hw->SPI);

	/* Check if the data register has been copied to the shift register */
	if (!spi_is_ready_to_write(module)) {
     dd6:	421f      	tst	r7, r3
     dd8:	d002      	beq.n	de0 <spi_write_buffer_wait+0x84>
		/* Data register has not been copied to the shift register, return */
		return STATUS_BUSY;
	}

	/* Write the character to the DATA register */
	spi_module->DATA.reg = tx_data & SERCOM_SPI_DATA_MASK;
     dda:	05ed      	lsls	r5, r5, #23
     ddc:	0ded      	lsrs	r5, r5, #23
     dde:	8335      	strh	r5, [r6, #24]
     de0:	1e55      	subs	r5, r2, #1
     de2:	b2ad      	uxth	r5, r5
		if (module->receiver_enabled) {
     de4:	79c6      	ldrb	r6, [r0, #7]
     de6:	2e00      	cmp	r6, #0
     de8:	d11d      	bne.n	e26 <spi_write_buffer_wait+0xca>
     dea:	002a      	movs	r2, r5
	while (length--) {
     dec:	4d59      	ldr	r5, [pc, #356]	; (f54 <spi_write_buffer_wait+0x1f8>)
     dee:	42aa      	cmp	r2, r5
     df0:	d070      	beq.n	ed4 <spi_write_buffer_wait+0x178>
		if (module->mode == SPI_MODE_SLAVE) {
     df2:	7945      	ldrb	r5, [r0, #5]
     df4:	2d00      	cmp	r5, #0
     df6:	d1e0      	bne.n	dba <spi_write_buffer_wait+0x5e>
	SercomSpi *const spi_module = &(module->hw->SPI);
     df8:	6806      	ldr	r6, [r0, #0]
	return (spi_module->INTFLAG.reg & SERCOM_SPI_INTFLAG_DRE);
     dfa:	7bb5      	ldrb	r5, [r6, #14]
				if (spi_is_ready_to_write(module)) {
     dfc:	421d      	tst	r5, r3
     dfe:	d1d4      	bne.n	daa <spi_write_buffer_wait+0x4e>
     e00:	4d55      	ldr	r5, [pc, #340]	; (f58 <spi_write_buffer_wait+0x1fc>)
     e02:	7bb7      	ldrb	r7, [r6, #14]
     e04:	421f      	tst	r7, r3
     e06:	d1d0      	bne.n	daa <spi_write_buffer_wait+0x4e>
     e08:	3d01      	subs	r5, #1
			for (uint32_t i = 0; i <= SPI_TIMEOUT; i++) {
     e0a:	2d00      	cmp	r5, #0
     e0c:	d1f9      	bne.n	e02 <spi_write_buffer_wait+0xa6>
     e0e:	e7cc      	b.n	daa <spi_write_buffer_wait+0x4e>
	spi_module->INTFLAG.reg = SPI_INTERRUPT_FLAG_TX_COMPLETE;
     e10:	2302      	movs	r3, #2
     e12:	73b3      	strb	r3, [r6, #14]
				return STATUS_ABORTED;
     e14:	3302      	adds	r3, #2
     e16:	e7ab      	b.n	d70 <spi_write_buffer_wait+0x14>
			data_to_send |= (tx_data[tx_pos++] << 8);
     e18:	3402      	adds	r4, #2
     e1a:	b2a4      	uxth	r4, r4
     e1c:	4651      	mov	r1, sl
     e1e:	5dcf      	ldrb	r7, [r1, r7]
     e20:	023f      	lsls	r7, r7, #8
     e22:	433d      	orrs	r5, r7
     e24:	e7d6      	b.n	dd4 <spi_write_buffer_wait+0x78>
     e26:	4651      	mov	r1, sl
			if (module->mode == SPI_MODE_SLAVE) {
     e28:	7945      	ldrb	r5, [r0, #5]
     e2a:	2d00      	cmp	r5, #0
     e2c:	d137      	bne.n	e9e <spi_write_buffer_wait+0x142>
     e2e:	4d4b      	ldr	r5, [pc, #300]	; (f5c <spi_write_buffer_wait+0x200>)
     e30:	9101      	str	r1, [sp, #4]
     e32:	e012      	b.n	e5a <spi_write_buffer_wait+0xfe>
							data_to_send |= (tx_data[tx_pos++] << 8);
     e34:	3402      	adds	r4, #2
     e36:	b2a4      	uxth	r4, r4
     e38:	4649      	mov	r1, r9
     e3a:	9f01      	ldr	r7, [sp, #4]
     e3c:	5c79      	ldrb	r1, [r7, r1]
     e3e:	0209      	lsls	r1, r1, #8
     e40:	9f00      	ldr	r7, [sp, #0]
     e42:	430f      	orrs	r7, r1
     e44:	e01b      	b.n	e7e <spi_write_buffer_wait+0x122>
						length--;
     e46:	3a01      	subs	r2, #1
     e48:	b292      	uxth	r2, r2
	SercomSpi *const spi_module = &(module->hw->SPI);
     e4a:	6806      	ldr	r6, [r0, #0]
	return (spi_module->INTFLAG.reg & SERCOM_SPI_INTFLAG_RXC);
     e4c:	7bb7      	ldrb	r7, [r6, #14]
					if (spi_is_ready_to_read(module)) {
     e4e:	4641      	mov	r1, r8
     e50:	420f      	tst	r7, r1
     e52:	d11b      	bne.n	e8c <spi_write_buffer_wait+0x130>
     e54:	3d01      	subs	r5, #1
				for (uint32_t i = 0; i <= SPI_TIMEOUT; i++) {
     e56:	2d00      	cmp	r5, #0
     e58:	d018      	beq.n	e8c <spi_write_buffer_wait+0x130>
					if (length && spi_is_ready_to_write(module)) {
     e5a:	2a00      	cmp	r2, #0
     e5c:	d0f5      	beq.n	e4a <spi_write_buffer_wait+0xee>
	SercomSpi *const spi_module = &(module->hw->SPI);
     e5e:	6806      	ldr	r6, [r0, #0]
	return (spi_module->INTFLAG.reg & SERCOM_SPI_INTFLAG_DRE);
     e60:	7bb7      	ldrb	r7, [r6, #14]
     e62:	421f      	tst	r7, r3
     e64:	d0f1      	beq.n	e4a <spi_write_buffer_wait+0xee>
						data_to_send = tx_data[tx_pos++];
     e66:	1c67      	adds	r7, r4, #1
     e68:	b2b9      	uxth	r1, r7
     e6a:	4689      	mov	r9, r1
     e6c:	9901      	ldr	r1, [sp, #4]
     e6e:	5d09      	ldrb	r1, [r1, r4]
     e70:	9100      	str	r1, [sp, #0]
						if (module->character_size == SPI_CHARACTER_SIZE_9BIT) {
     e72:	7981      	ldrb	r1, [r0, #6]
     e74:	2901      	cmp	r1, #1
     e76:	d0dd      	beq.n	e34 <spi_write_buffer_wait+0xd8>
						data_to_send = tx_data[tx_pos++];
     e78:	4669      	mov	r1, sp
     e7a:	880f      	ldrh	r7, [r1, #0]
     e7c:	464c      	mov	r4, r9
     e7e:	7bb1      	ldrb	r1, [r6, #14]
	if (!spi_is_ready_to_write(module)) {
     e80:	4219      	tst	r1, r3
     e82:	d0e0      	beq.n	e46 <spi_write_buffer_wait+0xea>
	spi_module->DATA.reg = tx_data & SERCOM_SPI_DATA_MASK;
     e84:	05ff      	lsls	r7, r7, #23
     e86:	0dff      	lsrs	r7, r7, #23
     e88:	8337      	strh	r7, [r6, #24]
     e8a:	e7dc      	b.n	e46 <spi_write_buffer_wait+0xea>
     e8c:	9901      	ldr	r1, [sp, #4]
	return (spi_module->INTFLAG.reg & SERCOM_SPI_INTFLAG_TXC);
     e8e:	7bb5      	ldrb	r5, [r6, #14]
				if (spi_is_write_complete(module)) {
     e90:	4667      	mov	r7, ip
     e92:	423d      	tst	r5, r7
     e94:	d118      	bne.n	ec8 <spi_write_buffer_wait+0x16c>
	return (spi_module->INTFLAG.reg & SERCOM_SPI_INTFLAG_RXC);
     e96:	7bb5      	ldrb	r5, [r6, #14]
				if (!spi_is_ready_to_read(module)) {
     e98:	4646      	mov	r6, r8
     e9a:	4235      	tst	r5, r6
     e9c:	d052      	beq.n	f44 <spi_write_buffer_wait+0x1e8>
	SercomSpi *const spi_module = &(module->hw->SPI);
     e9e:	6806      	ldr	r6, [r0, #0]
	return (spi_module->INTFLAG.reg & SERCOM_SPI_INTFLAG_RXC);
     ea0:	7bb5      	ldrb	r5, [r6, #14]
			while (!spi_is_ready_to_read(module)) {
     ea2:	4647      	mov	r7, r8
     ea4:	423d      	tst	r5, r7
     ea6:	d0fb      	beq.n	ea0 <spi_write_buffer_wait+0x144>
     ea8:	7bb5      	ldrb	r5, [r6, #14]
	Assert(module->hw);

	SercomSpi *const spi_module = &(module->hw->SPI);

	/* Check if data is ready to be read */
	if (!spi_is_ready_to_read(module)) {
     eaa:	423d      	tst	r5, r7
     eac:	d007      	beq.n	ebe <spi_write_buffer_wait+0x162>

	/* Return value */
	enum status_code retval = STATUS_OK;

	/* Check if data is overflown */
	if (spi_module->STATUS.reg & SERCOM_SPI_STATUS_BUFOVF) {
     eae:	8a35      	ldrh	r5, [r6, #16]
     eb0:	423d      	tst	r5, r7
     eb2:	d000      	beq.n	eb6 <spi_write_buffer_wait+0x15a>
		retval = STATUS_ERR_OVERFLOW;
		/* Clear overflow flag */
		spi_module->STATUS.reg = SERCOM_SPI_STATUS_BUFOVF;
     eb4:	8237      	strh	r7, [r6, #16]
	}

	/* Read the character from the DATA register */
	if (module->character_size == SPI_CHARACTER_SIZE_9BIT) {
     eb6:	7985      	ldrb	r5, [r0, #6]
     eb8:	2d01      	cmp	r5, #1
     eba:	d009      	beq.n	ed0 <spi_write_buffer_wait+0x174>
		*rx_data = (spi_module->DATA.reg & SERCOM_SPI_DATA_MASK);
	} else {
		*rx_data = (uint8_t)spi_module->DATA.reg;
     ebc:	8b35      	ldrh	r5, [r6, #24]
			flush_length--;
     ebe:	465d      	mov	r5, fp
     ec0:	3d01      	subs	r5, #1
     ec2:	b2ad      	uxth	r5, r5
     ec4:	46ab      	mov	fp, r5
     ec6:	e769      	b.n	d9c <spi_write_buffer_wait+0x40>
	spi_module->INTFLAG.reg = SPI_INTERRUPT_FLAG_TX_COMPLETE;
     ec8:	2302      	movs	r3, #2
     eca:	73b3      	strb	r3, [r6, #14]
					return STATUS_ABORTED;
     ecc:	3302      	adds	r3, #2
     ece:	e74f      	b.n	d70 <spi_write_buffer_wait+0x14>
		*rx_data = (spi_module->DATA.reg & SERCOM_SPI_DATA_MASK);
     ed0:	8b35      	ldrh	r5, [r6, #24]
     ed2:	e7f4      	b.n	ebe <spi_write_buffer_wait+0x162>
	if (module->mode == SPI_MODE_MASTER) {
     ed4:	7943      	ldrb	r3, [r0, #5]
     ed6:	2b01      	cmp	r3, #1
     ed8:	d00b      	beq.n	ef2 <spi_write_buffer_wait+0x196>
	if (module->mode == SPI_MODE_SLAVE) {
     eda:	2b00      	cmp	r3, #0
     edc:	d134      	bne.n	f48 <spi_write_buffer_wait+0x1ec>
		if (module->receiver_enabled) {
     ede:	79c2      	ldrb	r2, [r0, #7]
     ee0:	2a00      	cmp	r2, #0
     ee2:	d100      	bne.n	ee6 <spi_write_buffer_wait+0x18a>
     ee4:	e744      	b.n	d70 <spi_write_buffer_wait+0x14>
					if (spi_is_ready_to_read(module)) {
     ee6:	2404      	movs	r4, #4
			while (flush_length) {
     ee8:	465b      	mov	r3, fp
     eea:	465d      	mov	r5, fp
     eec:	2b00      	cmp	r3, #0
     eee:	d119      	bne.n	f24 <spi_write_buffer_wait+0x1c8>
     ef0:	e73e      	b.n	d70 <spi_write_buffer_wait+0x14>
	SercomSpi *const spi_module = &(module->hw->SPI);
     ef2:	6801      	ldr	r1, [r0, #0]
		while (!spi_is_write_complete(module)) {
     ef4:	2202      	movs	r2, #2
	return (spi_module->INTFLAG.reg & SERCOM_SPI_INTFLAG_TXC);
     ef6:	7b8b      	ldrb	r3, [r1, #14]
     ef8:	4213      	tst	r3, r2
     efa:	d0fc      	beq.n	ef6 <spi_write_buffer_wait+0x19a>
	return STATUS_OK;
     efc:	2300      	movs	r3, #0
     efe:	e737      	b.n	d70 <spi_write_buffer_wait+0x14>
	return (spi_module->INTFLAG.reg & SERCOM_SPI_INTFLAG_RXC);
     f00:	7b8b      	ldrb	r3, [r1, #14]
				if (!spi_is_ready_to_read(module)) {
     f02:	4223      	tst	r3, r4
     f04:	d022      	beq.n	f4c <spi_write_buffer_wait+0x1f0>
     f06:	7b8b      	ldrb	r3, [r1, #14]
	if (!spi_is_ready_to_read(module)) {
     f08:	4223      	tst	r3, r4
     f0a:	d007      	beq.n	f1c <spi_write_buffer_wait+0x1c0>
	if (spi_module->STATUS.reg & SERCOM_SPI_STATUS_BUFOVF) {
     f0c:	8a0b      	ldrh	r3, [r1, #16]
     f0e:	4223      	tst	r3, r4
     f10:	d000      	beq.n	f14 <spi_write_buffer_wait+0x1b8>
		spi_module->STATUS.reg = SERCOM_SPI_STATUS_BUFOVF;
     f12:	820c      	strh	r4, [r1, #16]
	if (module->character_size == SPI_CHARACTER_SIZE_9BIT) {
     f14:	7983      	ldrb	r3, [r0, #6]
     f16:	2b01      	cmp	r3, #1
     f18:	d010      	beq.n	f3c <spi_write_buffer_wait+0x1e0>
		*rx_data = (uint8_t)spi_module->DATA.reg;
     f1a:	8b0b      	ldrh	r3, [r1, #24]
				flush_length--;
     f1c:	3d01      	subs	r5, #1
     f1e:	b2ad      	uxth	r5, r5
			while (flush_length) {
     f20:	2d00      	cmp	r5, #0
     f22:	d015      	beq.n	f50 <spi_write_buffer_wait+0x1f4>
	SercomSpi *const spi_module = &(module->hw->SPI);
     f24:	6801      	ldr	r1, [r0, #0]
	return (spi_module->INTFLAG.reg & SERCOM_SPI_INTFLAG_RXC);
     f26:	7b8b      	ldrb	r3, [r1, #14]
					if (spi_is_ready_to_read(module)) {
     f28:	4223      	tst	r3, r4
     f2a:	d1e9      	bne.n	f00 <spi_write_buffer_wait+0x1a4>
     f2c:	4b0a      	ldr	r3, [pc, #40]	; (f58 <spi_write_buffer_wait+0x1fc>)
     f2e:	7b8a      	ldrb	r2, [r1, #14]
     f30:	4222      	tst	r2, r4
     f32:	d1e5      	bne.n	f00 <spi_write_buffer_wait+0x1a4>
     f34:	3b01      	subs	r3, #1
				for (uint32_t i = 0; i <= SPI_TIMEOUT; i++) {
     f36:	2b00      	cmp	r3, #0
     f38:	d1f9      	bne.n	f2e <spi_write_buffer_wait+0x1d2>
     f3a:	e7e1      	b.n	f00 <spi_write_buffer_wait+0x1a4>
		*rx_data = (spi_module->DATA.reg & SERCOM_SPI_DATA_MASK);
     f3c:	8b0b      	ldrh	r3, [r1, #24]
     f3e:	e7ed      	b.n	f1c <spi_write_buffer_wait+0x1c0>
				return STATUS_ERR_TIMEOUT;
     f40:	2312      	movs	r3, #18
     f42:	e715      	b.n	d70 <spi_write_buffer_wait+0x14>
					return STATUS_ERR_TIMEOUT;
     f44:	2312      	movs	r3, #18
     f46:	e713      	b.n	d70 <spi_write_buffer_wait+0x14>
	return STATUS_OK;
     f48:	2300      	movs	r3, #0
     f4a:	e711      	b.n	d70 <spi_write_buffer_wait+0x14>
					return STATUS_ERR_TIMEOUT;
     f4c:	2312      	movs	r3, #18
     f4e:	e70f      	b.n	d70 <spi_write_buffer_wait+0x14>
	return STATUS_OK;
     f50:	2300      	movs	r3, #0
     f52:	e70d      	b.n	d70 <spi_write_buffer_wait+0x14>
     f54:	0000ffff 	.word	0x0000ffff
     f58:	00002710 	.word	0x00002710
     f5c:	00002711 	.word	0x00002711

00000f60 <usart_init>:
 */
enum status_code usart_init(
		struct usart_module *const module,
		Sercom *const hw,
		const struct usart_config *const config)
{
     f60:	b5f0      	push	{r4, r5, r6, r7, lr}
     f62:	46de      	mov	lr, fp
     f64:	4657      	mov	r7, sl
     f66:	464e      	mov	r6, r9
     f68:	4645      	mov	r5, r8
     f6a:	b5e0      	push	{r5, r6, r7, lr}
     f6c:	b08d      	sub	sp, #52	; 0x34
     f6e:	0005      	movs	r5, r0
     f70:	000c      	movs	r4, r1
     f72:	0016      	movs	r6, r2
	Assert(config);

	enum status_code status_code = STATUS_OK;

	/* Assign module pointer to software instance struct */
	module->hw = hw;
     f74:	6029      	str	r1, [r5, #0]

	/* Get a pointer to the hardware module instance */
	SercomUsart *const usart_hw = &(module->hw->USART);

	uint32_t sercom_index = _sercom_get_sercom_inst_index(module->hw);
     f76:	0008      	movs	r0, r1
     f78:	4b7e      	ldr	r3, [pc, #504]	; (1174 <usart_init+0x214>)
     f7a:	4798      	blx	r3
     f7c:	0002      	movs	r2, r0
#else
	pm_index     = sercom_index + PM_APBCMASK_SERCOM0_Pos;
	gclk_index   = sercom_index + SERCOM0_GCLK_ID_CORE;
#endif

	if (usart_hw->CTRLA.reg & SERCOM_USART_CTRLA_SWRST) {
     f7e:	6823      	ldr	r3, [r4, #0]
		/* The module is busy resetting itself */
		return STATUS_BUSY;
     f80:	2005      	movs	r0, #5
	if (usart_hw->CTRLA.reg & SERCOM_USART_CTRLA_SWRST) {
     f82:	07db      	lsls	r3, r3, #31
     f84:	d506      	bpl.n	f94 <usart_init+0x34>
	_sercom_set_handler(instance_index, _usart_interrupt_handler);
	_sercom_instances[instance_index] = module;
#endif

	return status_code;
}
     f86:	b00d      	add	sp, #52	; 0x34
     f88:	bc3c      	pop	{r2, r3, r4, r5}
     f8a:	4690      	mov	r8, r2
     f8c:	4699      	mov	r9, r3
     f8e:	46a2      	mov	sl, r4
     f90:	46ab      	mov	fp, r5
     f92:	bdf0      	pop	{r4, r5, r6, r7, pc}
	if (usart_hw->CTRLA.reg & SERCOM_USART_CTRLA_ENABLE) {
     f94:	6823      	ldr	r3, [r4, #0]
		return STATUS_ERR_DENIED;
     f96:	3017      	adds	r0, #23
	if (usart_hw->CTRLA.reg & SERCOM_USART_CTRLA_ENABLE) {
     f98:	079b      	lsls	r3, r3, #30
     f9a:	d4f4      	bmi.n	f86 <usart_init+0x26>
     f9c:	4976      	ldr	r1, [pc, #472]	; (1178 <usart_init+0x218>)
     f9e:	6a08      	ldr	r0, [r1, #32]
	pm_index     = sercom_index + PM_APBCMASK_SERCOM0_Pos;
     fa0:	1c97      	adds	r7, r2, #2
	system_apb_clock_set_mask(SYSTEM_CLOCK_APB_APBC, 1 << pm_index);
     fa2:	2301      	movs	r3, #1
     fa4:	40bb      	lsls	r3, r7
     fa6:	4303      	orrs	r3, r0
     fa8:	620b      	str	r3, [r1, #32]
	gclk_chan_conf.source_generator = config->generator_source;
     faa:	a90b      	add	r1, sp, #44	; 0x2c
     fac:	7f73      	ldrb	r3, [r6, #29]
     fae:	700b      	strb	r3, [r1, #0]
	gclk_index   = sercom_index + SERCOM0_GCLK_ID_CORE;
     fb0:	320d      	adds	r2, #13
	system_gclk_chan_set_config(gclk_index, &gclk_chan_conf);
     fb2:	b2d7      	uxtb	r7, r2
     fb4:	0038      	movs	r0, r7
     fb6:	4b71      	ldr	r3, [pc, #452]	; (117c <usart_init+0x21c>)
     fb8:	4798      	blx	r3
	system_gclk_chan_enable(gclk_index);
     fba:	0038      	movs	r0, r7
     fbc:	4b70      	ldr	r3, [pc, #448]	; (1180 <usart_init+0x220>)
     fbe:	4798      	blx	r3
	sercom_set_gclk_generator(config->generator_source, false);
     fc0:	7f70      	ldrb	r0, [r6, #29]
     fc2:	2100      	movs	r1, #0
     fc4:	4b6f      	ldr	r3, [pc, #444]	; (1184 <usart_init+0x224>)
     fc6:	4798      	blx	r3
	module->character_size = config->character_size;
     fc8:	7af3      	ldrb	r3, [r6, #11]
     fca:	716b      	strb	r3, [r5, #5]
	module->receiver_enabled = config->receiver_enable;
     fcc:	7d33      	ldrb	r3, [r6, #20]
     fce:	71ab      	strb	r3, [r5, #6]
	module->transmitter_enabled = config->transmitter_enable;
     fd0:	7d73      	ldrb	r3, [r6, #21]
     fd2:	71eb      	strb	r3, [r5, #7]
	SercomUsart *const usart_hw = &(module->hw->USART);
     fd4:	682b      	ldr	r3, [r5, #0]
     fd6:	4698      	mov	r8, r3
	uint32_t sercom_index = _sercom_get_sercom_inst_index(module->hw);
     fd8:	0018      	movs	r0, r3
     fda:	4b66      	ldr	r3, [pc, #408]	; (1174 <usart_init+0x214>)
     fdc:	4798      	blx	r3
	gclk_index   = sercom_index + SERCOM0_GCLK_ID_CORE;
     fde:	300d      	adds	r0, #13
	uint16_t baud  = 0;
     fe0:	2200      	movs	r2, #0
     fe2:	230e      	movs	r3, #14
     fe4:	a902      	add	r1, sp, #8
     fe6:	468c      	mov	ip, r1
     fe8:	4463      	add	r3, ip
     fea:	801a      	strh	r2, [r3, #0]
	ctrla = (uint32_t)config->data_order |
     fec:	6833      	ldr	r3, [r6, #0]
     fee:	9303      	str	r3, [sp, #12]
		(uint32_t)config->mux_setting |
     ff0:	68f3      	ldr	r3, [r6, #12]
     ff2:	469a      	mov	sl, r3
		(config->clock_polarity_inverted << SERCOM_USART_CTRLA_CPOL_Pos);
     ff4:	7db3      	ldrb	r3, [r6, #22]
     ff6:	469b      	mov	fp, r3
	transfer_mode = (uint32_t)config->transfer_mode;
     ff8:	6873      	ldr	r3, [r6, #4]
     ffa:	4699      	mov	r9, r3
	switch (transfer_mode)
     ffc:	2b00      	cmp	r3, #0
     ffe:	d014      	beq.n	102a <usart_init+0xca>
    1000:	2380      	movs	r3, #128	; 0x80
    1002:	055b      	lsls	r3, r3, #21
    1004:	4599      	cmp	r9, r3
    1006:	d130      	bne.n	106a <usart_init+0x10a>
			if (!config->use_external_clock) {
    1008:	7df3      	ldrb	r3, [r6, #23]
    100a:	2b00      	cmp	r3, #0
    100c:	d131      	bne.n	1072 <usart_init+0x112>
				status_code = _sercom_get_sync_baud_val(config->baudrate,
    100e:	6933      	ldr	r3, [r6, #16]
    1010:	001f      	movs	r7, r3
    1012:	b2c0      	uxtb	r0, r0
    1014:	4b5c      	ldr	r3, [pc, #368]	; (1188 <usart_init+0x228>)
    1016:	4798      	blx	r3
    1018:	0001      	movs	r1, r0
    101a:	220e      	movs	r2, #14
    101c:	ab02      	add	r3, sp, #8
    101e:	469c      	mov	ip, r3
    1020:	4462      	add	r2, ip
    1022:	0038      	movs	r0, r7
    1024:	4b59      	ldr	r3, [pc, #356]	; (118c <usart_init+0x22c>)
    1026:	4798      	blx	r3
    1028:	e020      	b.n	106c <usart_init+0x10c>
			if (config->use_external_clock) {
    102a:	7df3      	ldrb	r3, [r6, #23]
    102c:	2b00      	cmp	r3, #0
    102e:	d00b      	beq.n	1048 <usart_init+0xe8>
				status_code =
    1030:	2310      	movs	r3, #16
    1032:	9300      	str	r3, [sp, #0]
    1034:	2300      	movs	r3, #0
    1036:	220e      	movs	r2, #14
    1038:	a902      	add	r1, sp, #8
    103a:	468c      	mov	ip, r1
    103c:	4462      	add	r2, ip
    103e:	69b1      	ldr	r1, [r6, #24]
    1040:	6930      	ldr	r0, [r6, #16]
    1042:	4f53      	ldr	r7, [pc, #332]	; (1190 <usart_init+0x230>)
    1044:	47b8      	blx	r7
    1046:	e011      	b.n	106c <usart_init+0x10c>
						_sercom_get_async_baud_val(config->baudrate,
    1048:	6933      	ldr	r3, [r6, #16]
    104a:	001f      	movs	r7, r3
    104c:	b2c0      	uxtb	r0, r0
    104e:	4b4e      	ldr	r3, [pc, #312]	; (1188 <usart_init+0x228>)
    1050:	4798      	blx	r3
    1052:	0001      	movs	r1, r0
				status_code =
    1054:	2310      	movs	r3, #16
    1056:	9300      	str	r3, [sp, #0]
    1058:	2300      	movs	r3, #0
    105a:	220e      	movs	r2, #14
    105c:	a802      	add	r0, sp, #8
    105e:	4684      	mov	ip, r0
    1060:	4462      	add	r2, ip
    1062:	0038      	movs	r0, r7
    1064:	4f4a      	ldr	r7, [pc, #296]	; (1190 <usart_init+0x230>)
    1066:	47b8      	blx	r7
    1068:	e000      	b.n	106c <usart_init+0x10c>
	enum status_code status_code = STATUS_OK;
    106a:	2000      	movs	r0, #0
	if (status_code != STATUS_OK) {
    106c:	2800      	cmp	r0, #0
    106e:	d000      	beq.n	1072 <usart_init+0x112>
    1070:	e789      	b.n	f86 <usart_init+0x26>
	usart_hw->BAUD.reg = baud;
    1072:	230e      	movs	r3, #14
    1074:	aa02      	add	r2, sp, #8
    1076:	4694      	mov	ip, r2
    1078:	4463      	add	r3, ip
    107a:	881b      	ldrh	r3, [r3, #0]
    107c:	4642      	mov	r2, r8
    107e:	8153      	strh	r3, [r2, #10]
	ctrla |= transfer_mode;
    1080:	4653      	mov	r3, sl
    1082:	9f03      	ldr	r7, [sp, #12]
    1084:	431f      	orrs	r7, r3
    1086:	464b      	mov	r3, r9
    1088:	431f      	orrs	r7, r3
		(config->clock_polarity_inverted << SERCOM_USART_CTRLA_CPOL_Pos);
    108a:	465b      	mov	r3, fp
    108c:	075b      	lsls	r3, r3, #29
	ctrla |= transfer_mode;
    108e:	431f      	orrs	r7, r3
	if (config->use_external_clock == false) {
    1090:	7df3      	ldrb	r3, [r6, #23]
    1092:	2b00      	cmp	r3, #0
    1094:	d101      	bne.n	109a <usart_init+0x13a>
		ctrla |= SERCOM_USART_CTRLA_MODE(0x1);
    1096:	3304      	adds	r3, #4
    1098:	431f      	orrs	r7, r3
			(config->receiver_enable << SERCOM_USART_CTRLB_RXEN_Pos) |
    109a:	7d31      	ldrb	r1, [r6, #20]
    109c:	0449      	lsls	r1, r1, #17
			(config->transmitter_enable << SERCOM_USART_CTRLB_TXEN_Pos);
    109e:	7d73      	ldrb	r3, [r6, #21]
    10a0:	041b      	lsls	r3, r3, #16
			(config->receiver_enable << SERCOM_USART_CTRLB_RXEN_Pos) |
    10a2:	430b      	orrs	r3, r1
	ctrlb |= (uint32_t)config->character_size;
    10a4:	7ab1      	ldrb	r1, [r6, #10]
    10a6:	7af2      	ldrb	r2, [r6, #11]
    10a8:	4311      	orrs	r1, r2
    10aa:	4319      	orrs	r1, r3
	if (config->parity != USART_PARITY_NONE) {
    10ac:	8933      	ldrh	r3, [r6, #8]
    10ae:	2bff      	cmp	r3, #255	; 0xff
    10b0:	d003      	beq.n	10ba <usart_init+0x15a>
		ctrla |= SERCOM_USART_CTRLA_FORM(1);
    10b2:	2280      	movs	r2, #128	; 0x80
    10b4:	0452      	lsls	r2, r2, #17
    10b6:	4317      	orrs	r7, r2
		ctrlb |= config->parity;
    10b8:	4319      	orrs	r1, r3
	if (config->run_in_standby || system_is_debugger_present()) {
    10ba:	7f33      	ldrb	r3, [r6, #28]
    10bc:	2b00      	cmp	r3, #0
    10be:	d103      	bne.n	10c8 <usart_init+0x168>
    10c0:	4b34      	ldr	r3, [pc, #208]	; (1194 <usart_init+0x234>)
    10c2:	789b      	ldrb	r3, [r3, #2]
    10c4:	079b      	lsls	r3, r3, #30
    10c6:	d501      	bpl.n	10cc <usart_init+0x16c>
		ctrla |= SERCOM_USART_CTRLA_RUNSTDBY;
    10c8:	2380      	movs	r3, #128	; 0x80
    10ca:	431f      	orrs	r7, r3
{
	/* Sanity check arguments */
	Assert(module);
	Assert(module->hw);

	SercomUsart *const usart_hw = &(module->hw->USART);
    10cc:	682a      	ldr	r2, [r5, #0]

#ifdef FEATURE_USART_SYNC_SCHEME_V2
	return (usart_hw->SYNCBUSY.reg);
#else
	return (usart_hw->STATUS.reg & SERCOM_USART_STATUS_SYNCBUSY);
    10ce:	8a13      	ldrh	r3, [r2, #16]
		const struct usart_module *const module)
{
	/* Sanity check */
	Assert(module);

	while (usart_is_syncing(module)) {
    10d0:	b21b      	sxth	r3, r3
    10d2:	2b00      	cmp	r3, #0
    10d4:	dbfb      	blt.n	10ce <usart_init+0x16e>
	usart_hw->CTRLB.reg = ctrlb;
    10d6:	4643      	mov	r3, r8
    10d8:	6059      	str	r1, [r3, #4]
	SercomUsart *const usart_hw = &(module->hw->USART);
    10da:	682a      	ldr	r2, [r5, #0]
	return (usart_hw->STATUS.reg & SERCOM_USART_STATUS_SYNCBUSY);
    10dc:	8a13      	ldrh	r3, [r2, #16]
	while (usart_is_syncing(module)) {
    10de:	b21b      	sxth	r3, r3
    10e0:	2b00      	cmp	r3, #0
    10e2:	dbfb      	blt.n	10dc <usart_init+0x17c>
	usart_hw->CTRLA.reg = ctrla;
    10e4:	4643      	mov	r3, r8
    10e6:	601f      	str	r7, [r3, #0]
	config->mux_position = SYSTEM_PINMUX_GPIO;
    10e8:	ab0a      	add	r3, sp, #40	; 0x28
    10ea:	2280      	movs	r2, #128	; 0x80
    10ec:	701a      	strb	r2, [r3, #0]
	config->direction    = SYSTEM_PINMUX_PIN_DIR_INPUT;
    10ee:	2200      	movs	r2, #0
    10f0:	705a      	strb	r2, [r3, #1]
	config->powersave    = false;
    10f2:	70da      	strb	r2, [r3, #3]
	pin_conf.input_pull = SYSTEM_PINMUX_PIN_PULL_NONE;
    10f4:	709a      	strb	r2, [r3, #2]
	uint32_t pad_pinmuxes[] = {
    10f6:	6a33      	ldr	r3, [r6, #32]
    10f8:	9306      	str	r3, [sp, #24]
    10fa:	6a73      	ldr	r3, [r6, #36]	; 0x24
    10fc:	9307      	str	r3, [sp, #28]
    10fe:	6ab3      	ldr	r3, [r6, #40]	; 0x28
    1100:	9308      	str	r3, [sp, #32]
    1102:	6af3      	ldr	r3, [r6, #44]	; 0x2c
    1104:	9303      	str	r3, [sp, #12]
    1106:	9309      	str	r3, [sp, #36]	; 0x24
    1108:	2700      	movs	r7, #0
		uint32_t current_pinmux = pad_pinmuxes[pad];
    110a:	ae06      	add	r6, sp, #24
    110c:	e006      	b.n	111c <usart_init+0x1bc>
			current_pinmux = _sercom_get_default_pad(hw, pad);
    110e:	0020      	movs	r0, r4
    1110:	4b21      	ldr	r3, [pc, #132]	; (1198 <usart_init+0x238>)
    1112:	4798      	blx	r3
    1114:	e007      	b.n	1126 <usart_init+0x1c6>
    1116:	3701      	adds	r7, #1
	for (uint8_t pad = 0; pad < 4; pad++) {
    1118:	2f04      	cmp	r7, #4
    111a:	d00d      	beq.n	1138 <usart_init+0x1d8>
    111c:	b2f9      	uxtb	r1, r7
		uint32_t current_pinmux = pad_pinmuxes[pad];
    111e:	00bb      	lsls	r3, r7, #2
    1120:	5998      	ldr	r0, [r3, r6]
		if (current_pinmux == PINMUX_DEFAULT) {
    1122:	2800      	cmp	r0, #0
    1124:	d0f3      	beq.n	110e <usart_init+0x1ae>
		if (current_pinmux != PINMUX_UNUSED) {
    1126:	1c43      	adds	r3, r0, #1
    1128:	d0f5      	beq.n	1116 <usart_init+0x1b6>
			pin_conf.mux_position = current_pinmux & 0xFFFF;
    112a:	a90a      	add	r1, sp, #40	; 0x28
    112c:	7008      	strb	r0, [r1, #0]
			system_pinmux_pin_set_config(current_pinmux >> 16, &pin_conf);
    112e:	0c00      	lsrs	r0, r0, #16
    1130:	b2c0      	uxtb	r0, r0
    1132:	4b1a      	ldr	r3, [pc, #104]	; (119c <usart_init+0x23c>)
    1134:	4798      	blx	r3
    1136:	e7ee      	b.n	1116 <usart_init+0x1b6>
		module->callback[i]            = NULL;
    1138:	2300      	movs	r3, #0
    113a:	60ab      	str	r3, [r5, #8]
    113c:	60eb      	str	r3, [r5, #12]
    113e:	612b      	str	r3, [r5, #16]
	module->tx_buffer_ptr              = NULL;
    1140:	61ab      	str	r3, [r5, #24]
	module->rx_buffer_ptr              = NULL;
    1142:	616b      	str	r3, [r5, #20]
	module->remaining_tx_buffer_length = 0x0000;
    1144:	2200      	movs	r2, #0
    1146:	83eb      	strh	r3, [r5, #30]
	module->remaining_rx_buffer_length = 0x0000;
    1148:	83ab      	strh	r3, [r5, #28]
	module->callback_reg_mask          = 0x00;
    114a:	3320      	adds	r3, #32
    114c:	54ea      	strb	r2, [r5, r3]
	module->callback_enable_mask       = 0x00;
    114e:	3301      	adds	r3, #1
    1150:	54ea      	strb	r2, [r5, r3]
	module->rx_status                  = STATUS_OK;
    1152:	3301      	adds	r3, #1
    1154:	54ea      	strb	r2, [r5, r3]
	module->tx_status                  = STATUS_OK;
    1156:	3301      	adds	r3, #1
    1158:	54ea      	strb	r2, [r5, r3]
	uint8_t instance_index = _sercom_get_sercom_inst_index(module->hw);
    115a:	6828      	ldr	r0, [r5, #0]
    115c:	4b05      	ldr	r3, [pc, #20]	; (1174 <usart_init+0x214>)
    115e:	4798      	blx	r3
    1160:	0004      	movs	r4, r0
	_sercom_set_handler(instance_index, _usart_interrupt_handler);
    1162:	490f      	ldr	r1, [pc, #60]	; (11a0 <usart_init+0x240>)
    1164:	4b0f      	ldr	r3, [pc, #60]	; (11a4 <usart_init+0x244>)
    1166:	4798      	blx	r3
	_sercom_instances[instance_index] = module;
    1168:	00a4      	lsls	r4, r4, #2
    116a:	4b0f      	ldr	r3, [pc, #60]	; (11a8 <usart_init+0x248>)
    116c:	50e5      	str	r5, [r4, r3]
	return status_code;
    116e:	2000      	movs	r0, #0
    1170:	e709      	b.n	f86 <usart_init+0x26>
    1172:	46c0      	nop			; (mov r8, r8)
    1174:	00000959 	.word	0x00000959
    1178:	40000400 	.word	0x40000400
    117c:	00001fa1 	.word	0x00001fa1
    1180:	00001f15 	.word	0x00001f15
    1184:	00000795 	.word	0x00000795
    1188:	00001fbd 	.word	0x00001fbd
    118c:	000006d7 	.word	0x000006d7
    1190:	00000701 	.word	0x00000701
    1194:	41002000 	.word	0x41002000
    1198:	000007e1 	.word	0x000007e1
    119c:	00002099 	.word	0x00002099
    11a0:	000012f5 	.word	0x000012f5
    11a4:	00000995 	.word	0x00000995
    11a8:	200000b0 	.word	0x200000b0

000011ac <usart_write_wait>:

	/* Get a pointer to the hardware module instance */
	SercomUsart *const usart_hw = &(module->hw->USART);

	/* Check that the transmitter is enabled */
	if (!(module->transmitter_enabled)) {
    11ac:	79c2      	ldrb	r2, [r0, #7]
		return STATUS_ERR_DENIED;
    11ae:	231c      	movs	r3, #28
	if (!(module->transmitter_enabled)) {
    11b0:	2a00      	cmp	r2, #0
    11b2:	d101      	bne.n	11b8 <usart_write_wait+0xc>
	while (!(usart_hw->INTFLAG.reg & SERCOM_USART_INTFLAG_TXC)) {
		/* Wait until data is sent */
	}

	return STATUS_OK;
}
    11b4:	0018      	movs	r0, r3
    11b6:	4770      	bx	lr
	if (module->remaining_tx_buffer_length > 0) {
    11b8:	8bc2      	ldrh	r2, [r0, #30]
    11ba:	b292      	uxth	r2, r2
		return STATUS_BUSY;
    11bc:	3b17      	subs	r3, #23
	if (module->remaining_tx_buffer_length > 0) {
    11be:	2a00      	cmp	r2, #0
    11c0:	d1f8      	bne.n	11b4 <usart_write_wait+0x8>
	SercomUsart *const usart_hw = &(module->hw->USART);
    11c2:	6802      	ldr	r2, [r0, #0]
	usart_hw->DATA.reg = tx_data;
    11c4:	8311      	strh	r1, [r2, #24]
	while (!(usart_hw->INTFLAG.reg & SERCOM_USART_INTFLAG_TXC)) {
    11c6:	2102      	movs	r1, #2
    11c8:	7b93      	ldrb	r3, [r2, #14]
    11ca:	420b      	tst	r3, r1
    11cc:	d0fc      	beq.n	11c8 <usart_write_wait+0x1c>
	return STATUS_OK;
    11ce:	2300      	movs	r3, #0
    11d0:	e7f0      	b.n	11b4 <usart_write_wait+0x8>
	...

000011d4 <usart_write_buffer_wait>:
 */
enum status_code usart_write_buffer_wait(
		struct usart_module *const module,
		const uint8_t *tx_data,
		uint16_t length)
{
    11d4:	b5f0      	push	{r4, r5, r6, r7, lr}
    11d6:	46ce      	mov	lr, r9
    11d8:	4647      	mov	r7, r8
    11da:	b580      	push	{r7, lr}
    11dc:	b083      	sub	sp, #12
    11de:	0005      	movs	r5, r0
    11e0:	9101      	str	r1, [sp, #4]
	Assert(module);
	Assert(module->hw);

	/* Check if the buffer length is valid */
	if (length == 0) {
		return STATUS_ERR_INVALID_ARG;
    11e2:	2017      	movs	r0, #23
	if (length == 0) {
    11e4:	2a00      	cmp	r2, #0
    11e6:	d104      	bne.n	11f2 <usart_write_buffer_wait+0x1e>
			return STATUS_ERR_TIMEOUT;
		}
	}

	return STATUS_OK;
}
    11e8:	b003      	add	sp, #12
    11ea:	bc0c      	pop	{r2, r3}
    11ec:	4690      	mov	r8, r2
    11ee:	4699      	mov	r9, r3
    11f0:	bdf0      	pop	{r4, r5, r6, r7, pc}
	if (!(module->transmitter_enabled)) {
    11f2:	79eb      	ldrb	r3, [r5, #7]
		return STATUS_ERR_DENIED;
    11f4:	3005      	adds	r0, #5
	if (!(module->transmitter_enabled)) {
    11f6:	2b00      	cmp	r3, #0
    11f8:	d0f6      	beq.n	11e8 <usart_write_buffer_wait+0x14>
	SercomUsart *const usart_hw = &(module->hw->USART);
    11fa:	682c      	ldr	r4, [r5, #0]
	while (length--) {
    11fc:	3a01      	subs	r2, #1
    11fe:	b293      	uxth	r3, r2
    1200:	4699      	mov	r9, r3
    1202:	2600      	movs	r6, #0
			if (usart_hw->INTFLAG.reg & SERCOM_USART_INTFLAG_DRE) {
    1204:	2701      	movs	r7, #1
	while (length--) {
    1206:	4b20      	ldr	r3, [pc, #128]	; (1288 <usart_write_buffer_wait+0xb4>)
    1208:	4698      	mov	r8, r3
    120a:	e011      	b.n	1230 <usart_write_buffer_wait+0x5c>
		uint16_t data_to_send = tx_data[tx_pos++];
    120c:	1c73      	adds	r3, r6, #1
    120e:	b29b      	uxth	r3, r3
    1210:	9a01      	ldr	r2, [sp, #4]
    1212:	5d91      	ldrb	r1, [r2, r6]
		if (module->character_size == USART_CHARACTER_SIZE_9BIT) {
    1214:	796a      	ldrb	r2, [r5, #5]
    1216:	2a01      	cmp	r2, #1
    1218:	d017      	beq.n	124a <usart_write_buffer_wait+0x76>
		uint16_t data_to_send = tx_data[tx_pos++];
    121a:	b289      	uxth	r1, r1
    121c:	001e      	movs	r6, r3
		usart_write_wait(module, data_to_send);
    121e:	0028      	movs	r0, r5
    1220:	4b1a      	ldr	r3, [pc, #104]	; (128c <usart_write_buffer_wait+0xb8>)
    1222:	4798      	blx	r3
	while (length--) {
    1224:	464b      	mov	r3, r9
    1226:	3b01      	subs	r3, #1
    1228:	b29b      	uxth	r3, r3
    122a:	4699      	mov	r9, r3
    122c:	4543      	cmp	r3, r8
    122e:	d013      	beq.n	1258 <usart_write_buffer_wait+0x84>
			if (usart_hw->INTFLAG.reg & SERCOM_USART_INTFLAG_DRE) {
    1230:	7ba3      	ldrb	r3, [r4, #14]
    1232:	423b      	tst	r3, r7
    1234:	d1ea      	bne.n	120c <usart_write_buffer_wait+0x38>
    1236:	4b14      	ldr	r3, [pc, #80]	; (1288 <usart_write_buffer_wait+0xb4>)
    1238:	7ba2      	ldrb	r2, [r4, #14]
    123a:	423a      	tst	r2, r7
    123c:	d1e6      	bne.n	120c <usart_write_buffer_wait+0x38>
			} else if (i == USART_TIMEOUT) {
    123e:	2b01      	cmp	r3, #1
    1240:	d019      	beq.n	1276 <usart_write_buffer_wait+0xa2>
    1242:	3b01      	subs	r3, #1
		for (uint32_t i = 0; i <= USART_TIMEOUT; i++) {
    1244:	2b00      	cmp	r3, #0
    1246:	d1f7      	bne.n	1238 <usart_write_buffer_wait+0x64>
    1248:	e7e0      	b.n	120c <usart_write_buffer_wait+0x38>
			data_to_send |= (tx_data[tx_pos++] << 8);
    124a:	3602      	adds	r6, #2
    124c:	b2b6      	uxth	r6, r6
    124e:	9a01      	ldr	r2, [sp, #4]
    1250:	5cd3      	ldrb	r3, [r2, r3]
    1252:	021b      	lsls	r3, r3, #8
    1254:	4319      	orrs	r1, r3
    1256:	e7e2      	b.n	121e <usart_write_buffer_wait+0x4a>
		if (usart_hw->INTFLAG.reg & SERCOM_USART_INTFLAG_TXC) {
    1258:	7ba3      	ldrb	r3, [r4, #14]
    125a:	079b      	lsls	r3, r3, #30
    125c:	d40d      	bmi.n	127a <usart_write_buffer_wait+0xa6>
    125e:	4b0a      	ldr	r3, [pc, #40]	; (1288 <usart_write_buffer_wait+0xb4>)
    1260:	2102      	movs	r1, #2
    1262:	7ba2      	ldrb	r2, [r4, #14]
    1264:	420a      	tst	r2, r1
    1266:	d10a      	bne.n	127e <usart_write_buffer_wait+0xaa>
		} else if (i == USART_TIMEOUT) {
    1268:	2b01      	cmp	r3, #1
    126a:	d00a      	beq.n	1282 <usart_write_buffer_wait+0xae>
    126c:	3b01      	subs	r3, #1
	for (uint32_t i = 0; i <= USART_TIMEOUT; i++) {
    126e:	2b00      	cmp	r3, #0
    1270:	d1f7      	bne.n	1262 <usart_write_buffer_wait+0x8e>
	return STATUS_OK;
    1272:	2000      	movs	r0, #0
    1274:	e7b8      	b.n	11e8 <usart_write_buffer_wait+0x14>
				return STATUS_ERR_TIMEOUT;
    1276:	2012      	movs	r0, #18
    1278:	e7b6      	b.n	11e8 <usart_write_buffer_wait+0x14>
	return STATUS_OK;
    127a:	2000      	movs	r0, #0
    127c:	e7b4      	b.n	11e8 <usart_write_buffer_wait+0x14>
    127e:	2000      	movs	r0, #0
    1280:	e7b2      	b.n	11e8 <usart_write_buffer_wait+0x14>
			return STATUS_ERR_TIMEOUT;
    1282:	2012      	movs	r0, #18
    1284:	e7b0      	b.n	11e8 <usart_write_buffer_wait+0x14>
    1286:	46c0      	nop			; (mov r8, r8)
    1288:	0000ffff 	.word	0x0000ffff
    128c:	000011ad 	.word	0x000011ad

00001290 <_usart_read_buffer>:
 */
enum status_code _usart_read_buffer(
		struct usart_module *const module,
		uint8_t *rx_data,
		uint16_t length)
{
    1290:	b5f8      	push	{r3, r4, r5, r6, r7, lr}
    1292:	0006      	movs	r6, r0
    1294:	000c      	movs	r4, r1
    1296:	0015      	movs	r5, r2
	Assert(module);
	Assert(module->hw);
	Assert(rx_data);

	/* Get a pointer to the hardware module instance */
	SercomUsart *const usart_hw = &(module->hw->USART);
    1298:	6807      	ldr	r7, [r0, #0]
 * are only re-enabled upon leaving the outermost nested critical section.
 *
 */
static inline void system_interrupt_enter_critical_section(void)
{
	cpu_irq_enter_critical();
    129a:	4b0a      	ldr	r3, [pc, #40]	; (12c4 <_usart_read_buffer+0x34>)
    129c:	4798      	blx	r3

	system_interrupt_enter_critical_section();

	/* Check if the USART receiver is busy */
	if (module->remaining_rx_buffer_length > 0) {
    129e:	8bb3      	ldrh	r3, [r6, #28]
    12a0:	b29b      	uxth	r3, r3
    12a2:	2b00      	cmp	r3, #0
    12a4:	d003      	beq.n	12ae <_usart_read_buffer+0x1e>
 * are only re-enabled upon leaving the outermost nested critical section.
 *
 */
static inline void system_interrupt_leave_critical_section(void)
{
	cpu_irq_leave_critical();
    12a6:	4b08      	ldr	r3, [pc, #32]	; (12c8 <_usart_read_buffer+0x38>)
    12a8:	4798      	blx	r3
		system_interrupt_leave_critical_section();
		return STATUS_BUSY;
    12aa:	2005      	movs	r0, #5
		usart_hw->INTENSET.reg = SERCOM_USART_INTFLAG_RXS;
	}
#endif

	return STATUS_OK;
}
    12ac:	bdf8      	pop	{r3, r4, r5, r6, r7, pc}
	module->remaining_rx_buffer_length = length;
    12ae:	83b5      	strh	r5, [r6, #28]
    12b0:	4b05      	ldr	r3, [pc, #20]	; (12c8 <_usart_read_buffer+0x38>)
    12b2:	4798      	blx	r3
	module->rx_buffer_ptr              = rx_data;
    12b4:	6174      	str	r4, [r6, #20]
	module->rx_status                  = STATUS_BUSY;
    12b6:	2205      	movs	r2, #5
    12b8:	2322      	movs	r3, #34	; 0x22
    12ba:	54f2      	strb	r2, [r6, r3]
	usart_hw->INTENSET.reg = SERCOM_USART_INTFLAG_RXC;
    12bc:	3b1e      	subs	r3, #30
    12be:	737b      	strb	r3, [r7, #13]
	return STATUS_OK;
    12c0:	2000      	movs	r0, #0
    12c2:	e7f3      	b.n	12ac <_usart_read_buffer+0x1c>
    12c4:	00001abd 	.word	0x00001abd
    12c8:	00001afd 	.word	0x00001afd

000012cc <usart_register_callback>:
	/* Sanity check arguments */
	Assert(module);
	Assert(callback_func);

	/* Register callback function */
	module->callback[callback_type] = callback_func;
    12cc:	1c93      	adds	r3, r2, #2
    12ce:	009b      	lsls	r3, r3, #2
    12d0:	5019      	str	r1, [r3, r0]

	/* Set the bit corresponding to the callback_type */
	module->callback_reg_mask |= (1 << callback_type);
    12d2:	2120      	movs	r1, #32
    12d4:	2301      	movs	r3, #1
    12d6:	4093      	lsls	r3, r2
    12d8:	001a      	movs	r2, r3
    12da:	5c43      	ldrb	r3, [r0, r1]
    12dc:	4313      	orrs	r3, r2
    12de:	5443      	strb	r3, [r0, r1]
}
    12e0:	4770      	bx	lr
	...

000012e4 <usart_read_job>:
 * \retval  STATUS_BUSY  If operation was not completed
 */
enum status_code usart_read_job(
		struct usart_module *const module,
		uint16_t *const rx_data)
{
    12e4:	b510      	push	{r4, lr}
	/* Sanity check arguments */
	Assert(module);
	Assert(rx_data);

	/* Call internal read buffer function with length 1 */
	return _usart_read_buffer(module, (uint8_t *)rx_data, 1);
    12e6:	2201      	movs	r2, #1
    12e8:	4b01      	ldr	r3, [pc, #4]	; (12f0 <usart_read_job+0xc>)
    12ea:	4798      	blx	r3
}
    12ec:	bd10      	pop	{r4, pc}
    12ee:	46c0      	nop			; (mov r8, r8)
    12f0:	00001291 	.word	0x00001291

000012f4 <_usart_interrupt_handler>:
 * \param[in]  instance  ID of the SERCOM instance calling the interrupt
 *                       handler.
 */
void _usart_interrupt_handler(
		uint8_t instance)
{
    12f4:	b5f8      	push	{r3, r4, r5, r6, r7, lr}
	uint16_t callback_status;
	uint8_t error_code;


	/* Get device instance from the look-up table */
	struct usart_module *module
    12f6:	0080      	lsls	r0, r0, #2
    12f8:	4b46      	ldr	r3, [pc, #280]	; (1414 <_usart_interrupt_handler+0x120>)
    12fa:	58c5      	ldr	r5, [r0, r3]
		= (struct usart_module *)_sercom_instances[instance];

	/* Pointer to the hardware module instance */
	SercomUsart *const usart_hw
		= &(module->hw->USART);
    12fc:	682c      	ldr	r4, [r5, #0]
	return (usart_hw->STATUS.reg & SERCOM_USART_STATUS_SYNCBUSY);
    12fe:	8a23      	ldrh	r3, [r4, #16]
	while (usart_is_syncing(module)) {
    1300:	b21b      	sxth	r3, r3
    1302:	2b00      	cmp	r3, #0
    1304:	dbfb      	blt.n	12fe <_usart_interrupt_handler+0xa>

	/* Wait for the synchronization to complete */
	_usart_wait_for_sync(module);

	/* Read and mask interrupt flag register */
	interrupt_status = usart_hw->INTFLAG.reg;
    1306:	7ba3      	ldrb	r3, [r4, #14]
	interrupt_status &= usart_hw->INTENSET.reg;
    1308:	7b66      	ldrb	r6, [r4, #13]
    130a:	401e      	ands	r6, r3
	callback_status = module->callback_reg_mask &
    130c:	2320      	movs	r3, #32
    130e:	5ceb      	ldrb	r3, [r5, r3]
    1310:	2221      	movs	r2, #33	; 0x21
    1312:	5caf      	ldrb	r7, [r5, r2]
    1314:	401f      	ands	r7, r3
			module->callback_enable_mask;

	/* Check if a DATA READY interrupt has occurred,
	 * and if there is more to transfer */
	if (interrupt_status & SERCOM_USART_INTFLAG_DRE) {
    1316:	07f3      	lsls	r3, r6, #31
    1318:	d522      	bpl.n	1360 <_usart_interrupt_handler+0x6c>
		if (module->remaining_tx_buffer_length) {
    131a:	8beb      	ldrh	r3, [r5, #30]
    131c:	b29b      	uxth	r3, r3
    131e:	2b00      	cmp	r3, #0
    1320:	d01c      	beq.n	135c <_usart_interrupt_handler+0x68>
			/* Write value will be at least 8-bits long */
			uint16_t data_to_send = *(module->tx_buffer_ptr);
    1322:	69aa      	ldr	r2, [r5, #24]
    1324:	7813      	ldrb	r3, [r2, #0]
    1326:	b2db      	uxtb	r3, r3
			/* Increment 8-bit pointer */
			(module->tx_buffer_ptr)++;
    1328:	1c51      	adds	r1, r2, #1
    132a:	61a9      	str	r1, [r5, #24]

			if (module->character_size == USART_CHARACTER_SIZE_9BIT) {
    132c:	7969      	ldrb	r1, [r5, #5]
    132e:	2901      	cmp	r1, #1
    1330:	d00e      	beq.n	1350 <_usart_interrupt_handler+0x5c>
			uint16_t data_to_send = *(module->tx_buffer_ptr);
    1332:	b29b      	uxth	r3, r3
				data_to_send |= (*(module->tx_buffer_ptr) << 8);
				/* Increment 8-bit pointer */
				(module->tx_buffer_ptr)++;
			}
			/* Write the data to send */
			usart_hw->DATA.reg = (data_to_send & SERCOM_USART_DATA_MASK);
    1334:	05db      	lsls	r3, r3, #23
    1336:	0ddb      	lsrs	r3, r3, #23
    1338:	8323      	strh	r3, [r4, #24]

			if (--(module->remaining_tx_buffer_length) == 0) {
    133a:	8beb      	ldrh	r3, [r5, #30]
    133c:	3b01      	subs	r3, #1
    133e:	b29b      	uxth	r3, r3
    1340:	83eb      	strh	r3, [r5, #30]
    1342:	2b00      	cmp	r3, #0
    1344:	d10c      	bne.n	1360 <_usart_interrupt_handler+0x6c>
				/* Disable the Data Register Empty Interrupt */
				usart_hw->INTENCLR.reg = SERCOM_USART_INTFLAG_DRE;
    1346:	3301      	adds	r3, #1
    1348:	7323      	strb	r3, [r4, #12]
				/* Enable Transmission Complete interrupt */
				usart_hw->INTENSET.reg = SERCOM_USART_INTFLAG_TXC;
    134a:	3301      	adds	r3, #1
    134c:	7363      	strb	r3, [r4, #13]
    134e:	e007      	b.n	1360 <_usart_interrupt_handler+0x6c>
				data_to_send |= (*(module->tx_buffer_ptr) << 8);
    1350:	7851      	ldrb	r1, [r2, #1]
    1352:	0209      	lsls	r1, r1, #8
    1354:	430b      	orrs	r3, r1
				(module->tx_buffer_ptr)++;
    1356:	3202      	adds	r2, #2
    1358:	61aa      	str	r2, [r5, #24]
    135a:	e7eb      	b.n	1334 <_usart_interrupt_handler+0x40>

			}
		} else {
			usart_hw->INTENCLR.reg = SERCOM_USART_INTFLAG_DRE;
    135c:	2301      	movs	r3, #1
    135e:	7323      	strb	r3, [r4, #12]
		}
	}

	/* Check if the Transmission Complete interrupt has occurred and
	 * that the transmit buffer is empty */
	if (interrupt_status & SERCOM_USART_INTFLAG_TXC) {
    1360:	07b3      	lsls	r3, r6, #30
    1362:	d506      	bpl.n	1372 <_usart_interrupt_handler+0x7e>

		/* Disable TX Complete Interrupt, and set STATUS_OK */
		usart_hw->INTENCLR.reg = SERCOM_USART_INTFLAG_TXC;
    1364:	2302      	movs	r3, #2
    1366:	7323      	strb	r3, [r4, #12]
		module->tx_status = STATUS_OK;
    1368:	2200      	movs	r2, #0
    136a:	3321      	adds	r3, #33	; 0x21
    136c:	54ea      	strb	r2, [r5, r3]

		/* Run callback if registered and enabled */
		if (callback_status & (1 << USART_CALLBACK_BUFFER_TRANSMITTED)) {
    136e:	07fb      	lsls	r3, r7, #31
    1370:	d416      	bmi.n	13a0 <_usart_interrupt_handler+0xac>
		}
	}

	/* Check if the Receive Complete interrupt has occurred, and that
	 * there's more data to receive */
	if (interrupt_status & SERCOM_USART_INTFLAG_RXC) {
    1372:	0773      	lsls	r3, r6, #29
    1374:	d54d      	bpl.n	1412 <_usart_interrupt_handler+0x11e>

		if (module->remaining_rx_buffer_length) {
    1376:	8bab      	ldrh	r3, [r5, #28]
    1378:	b29b      	uxth	r3, r3
    137a:	2b00      	cmp	r3, #0
    137c:	d047      	beq.n	140e <_usart_interrupt_handler+0x11a>
			/* Read out the status code and mask away all but the 4 LSBs*/
			error_code = (uint8_t)(usart_hw->STATUS.reg & SERCOM_USART_STATUS_MASK);
    137e:	8a23      	ldrh	r3, [r4, #16]
    1380:	b2db      	uxtb	r3, r3
			if(error_code & SERCOM_USART_STATUS_TXE) {
				error_code &= ~SERCOM_USART_STATUS_TXE;
			}
#endif
			/* Check if an error has occurred during the receiving */
			if (error_code) {
    1382:	075a      	lsls	r2, r3, #29
    1384:	d020      	beq.n	13c8 <_usart_interrupt_handler+0xd4>
				/* Check which error occurred */
				if (error_code & SERCOM_USART_STATUS_FERR) {
    1386:	079a      	lsls	r2, r3, #30
    1388:	d50e      	bpl.n	13a8 <_usart_interrupt_handler+0xb4>
					/* Store the error code and clear flag by writing 1 to it */
					module->rx_status = STATUS_ERR_BAD_FORMAT;
    138a:	221a      	movs	r2, #26
    138c:	2322      	movs	r3, #34	; 0x22
    138e:	54ea      	strb	r2, [r5, r3]
					usart_hw->STATUS.reg = SERCOM_USART_STATUS_FERR;
    1390:	3b20      	subs	r3, #32
    1392:	8223      	strh	r3, [r4, #16]
					usart_hw->STATUS.reg = SERCOM_USART_STATUS_COLL;
				}
#endif

				/* Run callback if registered and enabled */
				if (callback_status
    1394:	077b      	lsls	r3, r7, #29
    1396:	d53c      	bpl.n	1412 <_usart_interrupt_handler+0x11e>
						& (1 << USART_CALLBACK_ERROR)) {
					(*(module->callback[USART_CALLBACK_ERROR]))(module);
    1398:	692b      	ldr	r3, [r5, #16]
    139a:	0028      	movs	r0, r5
    139c:	4798      	blx	r3
    139e:	e038      	b.n	1412 <_usart_interrupt_handler+0x11e>
			(*(module->callback[USART_CALLBACK_BUFFER_TRANSMITTED]))(module);
    13a0:	0028      	movs	r0, r5
    13a2:	68ab      	ldr	r3, [r5, #8]
    13a4:	4798      	blx	r3
    13a6:	e7e4      	b.n	1372 <_usart_interrupt_handler+0x7e>
				} else if (error_code & SERCOM_USART_STATUS_BUFOVF) {
    13a8:	075a      	lsls	r2, r3, #29
    13aa:	d505      	bpl.n	13b8 <_usart_interrupt_handler+0xc4>
					module->rx_status = STATUS_ERR_OVERFLOW;
    13ac:	221e      	movs	r2, #30
    13ae:	2322      	movs	r3, #34	; 0x22
    13b0:	54ea      	strb	r2, [r5, r3]
					usart_hw->STATUS.reg = SERCOM_USART_STATUS_BUFOVF;
    13b2:	3b1e      	subs	r3, #30
    13b4:	8223      	strh	r3, [r4, #16]
    13b6:	e7ed      	b.n	1394 <_usart_interrupt_handler+0xa0>
				} else if (error_code & SERCOM_USART_STATUS_PERR) {
    13b8:	07db      	lsls	r3, r3, #31
    13ba:	d5eb      	bpl.n	1394 <_usart_interrupt_handler+0xa0>
					module->rx_status = STATUS_ERR_BAD_DATA;
    13bc:	2213      	movs	r2, #19
    13be:	2322      	movs	r3, #34	; 0x22
    13c0:	54ea      	strb	r2, [r5, r3]
					usart_hw->STATUS.reg = SERCOM_USART_STATUS_PERR;
    13c2:	3b21      	subs	r3, #33	; 0x21
    13c4:	8223      	strh	r3, [r4, #16]
    13c6:	e7e5      	b.n	1394 <_usart_interrupt_handler+0xa0>

			} else {

				/* Read current packet from DATA register,
				 * increment buffer pointer and decrement buffer length */
				uint16_t received_data = (usart_hw->DATA.reg & SERCOM_USART_DATA_MASK);
    13c8:	8b23      	ldrh	r3, [r4, #24]
    13ca:	05db      	lsls	r3, r3, #23
    13cc:	0ddb      	lsrs	r3, r3, #23

				/* Read value will be at least 8-bits long */
				*(module->rx_buffer_ptr) = received_data;
    13ce:	b2da      	uxtb	r2, r3
    13d0:	6969      	ldr	r1, [r5, #20]
    13d2:	700a      	strb	r2, [r1, #0]
				/* Increment 8-bit pointer */
				module->rx_buffer_ptr += 1;
    13d4:	696a      	ldr	r2, [r5, #20]
    13d6:	1c51      	adds	r1, r2, #1
    13d8:	6169      	str	r1, [r5, #20]

				if (module->character_size == USART_CHARACTER_SIZE_9BIT) {
    13da:	7969      	ldrb	r1, [r5, #5]
    13dc:	2901      	cmp	r1, #1
    13de:	d010      	beq.n	1402 <_usart_interrupt_handler+0x10e>
					/* Increment 8-bit pointer */
					module->rx_buffer_ptr += 1;
				}

				/* Check if the last character have been received */
				if(--(module->remaining_rx_buffer_length) == 0) {
    13e0:	8bab      	ldrh	r3, [r5, #28]
    13e2:	3b01      	subs	r3, #1
    13e4:	b29b      	uxth	r3, r3
    13e6:	83ab      	strh	r3, [r5, #28]
    13e8:	2b00      	cmp	r3, #0
    13ea:	d112      	bne.n	1412 <_usart_interrupt_handler+0x11e>
					/* Disable RX Complete Interrupt,
					 * and set STATUS_OK */
					usart_hw->INTENCLR.reg = SERCOM_USART_INTFLAG_RXC;
    13ec:	3304      	adds	r3, #4
    13ee:	7323      	strb	r3, [r4, #12]
					module->rx_status = STATUS_OK;
    13f0:	2200      	movs	r2, #0
    13f2:	331e      	adds	r3, #30
    13f4:	54ea      	strb	r2, [r5, r3]

					/* Run callback if registered and enabled */
					if (callback_status
    13f6:	07bb      	lsls	r3, r7, #30
    13f8:	d50b      	bpl.n	1412 <_usart_interrupt_handler+0x11e>
							& (1 << USART_CALLBACK_BUFFER_RECEIVED)) {
						(*(module->callback[USART_CALLBACK_BUFFER_RECEIVED]))(module);
    13fa:	68eb      	ldr	r3, [r5, #12]
    13fc:	0028      	movs	r0, r5
    13fe:	4798      	blx	r3
    1400:	e007      	b.n	1412 <_usart_interrupt_handler+0x11e>
					*(module->rx_buffer_ptr) = (received_data >> 8);
    1402:	0a1b      	lsrs	r3, r3, #8
    1404:	7053      	strb	r3, [r2, #1]
					module->rx_buffer_ptr += 1;
    1406:	696b      	ldr	r3, [r5, #20]
    1408:	3301      	adds	r3, #1
    140a:	616b      	str	r3, [r5, #20]
    140c:	e7e8      	b.n	13e0 <_usart_interrupt_handler+0xec>
					}
				}
			}
		} else {
			/* This should not happen. Disable Receive Complete interrupt. */
			usart_hw->INTENCLR.reg = SERCOM_USART_INTFLAG_RXC;
    140e:	2304      	movs	r3, #4
    1410:	7323      	strb	r3, [r4, #12]
		if (callback_status & (1 << USART_CALLBACK_START_RECEIVED)) {
			(*(module->callback[USART_CALLBACK_START_RECEIVED]))(module);
		}
	}
#endif
}
    1412:	bdf8      	pop	{r3, r4, r5, r6, r7, pc}
    1414:	200000b0 	.word	0x200000b0

00001418 <drv_ctrl_write_cmd>:
static uint16_t actual_position_mm;

    /* Pure SPI write function, takes register and data as input and send it to the stepper controller via SPI.
	 * Returns 0 on success and 1 on failure.
	 */
static int drv_ctrl_write_cmd(uint8_t adress, uint16_t data) {
    1418:	b530      	push	{r4, r5, lr}
    141a:	b083      	sub	sp, #12
	
	uint8_t transfer_data_buffer[] = {((adress << 4)|(data >> 8)), (data & 0xFF)};
    141c:	ab01      	add	r3, sp, #4
    141e:	0102      	lsls	r2, r0, #4
    1420:	0a08      	lsrs	r0, r1, #8
    1422:	4310      	orrs	r0, r2
    1424:	7018      	strb	r0, [r3, #0]
    1426:	7059      	strb	r1, [r3, #1]
	PortGroup *const port_base = port_get_group_from_gpio_pin(gpio_pin);
	uint32_t pin_mask  = (1UL << (gpio_pin % 32));

	/* Set the pin to high or low atomically based on the requested level */
	if (level) {
		port_base->OUTSET.reg = pin_mask;
    1428:	4c06      	ldr	r4, [pc, #24]	; (1444 <drv_ctrl_write_cmd+0x2c>)
    142a:	2540      	movs	r5, #64	; 0x40
    142c:	61a5      	str	r5, [r4, #24]
	
	port_pin_set_output_level(MOTOR_CONTROLLER_SS_PIN, true);
	enum status_code response = spi_write_buffer_wait(&spi_master_instance, transfer_data_buffer, 2);
    142e:	2202      	movs	r2, #2
    1430:	0019      	movs	r1, r3
    1432:	4805      	ldr	r0, [pc, #20]	; (1448 <drv_ctrl_write_cmd+0x30>)
    1434:	4b05      	ldr	r3, [pc, #20]	; (144c <drv_ctrl_write_cmd+0x34>)
    1436:	4798      	blx	r3
	} else {
		port_base->OUTCLR.reg = pin_mask;
    1438:	6165      	str	r5, [r4, #20]
	port_pin_set_output_level(MOTOR_CONTROLLER_SS_PIN, false);
	
	if(response == 0) {
    143a:	1e43      	subs	r3, r0, #1
    143c:	4198      	sbcs	r0, r3
		return EXIT_SUCCESS;
	} else {
		return EXIT_FAILURE;
	}
}
    143e:	b003      	add	sp, #12
    1440:	bd30      	pop	{r4, r5, pc}
    1442:	46c0      	nop			; (mov r8, r8)
    1444:	41004480 	.word	0x41004480
    1448:	20000118 	.word	0x20000118
    144c:	00000d5d 	.word	0x00000d5d

00001450 <drv_ctrl_write_ctrl>:

    /* Following functions writes to one designated register. The functions are using the local configuration struct
	 * to prevent overwriting of previous values.
	 */

static void drv_ctrl_write_ctrl(void){
    1450:	b510      	push	{r4, lr}
	
	drv_ctrl_write_cmd(CTRL_REG,
	drv_config.direction_set |
    1452:	4b08      	ldr	r3, [pc, #32]	; (1474 <drv_ctrl_write_ctrl+0x24>)
	drv_config.enable |
	drv_config.step_mode |
	drv_config.stall_detect |
    1454:	7899      	ldrb	r1, [r3, #2]
    1456:	781a      	ldrb	r2, [r3, #0]
    1458:	4311      	orrs	r1, r2
    145a:	78da      	ldrb	r2, [r3, #3]
    145c:	4311      	orrs	r1, r2
    145e:	791a      	ldrb	r2, [r3, #4]
    1460:	4311      	orrs	r1, r2
    1462:	88da      	ldrh	r2, [r3, #6]
    1464:	4311      	orrs	r1, r2
	drv_config.isense_gain |
    1466:	891b      	ldrh	r3, [r3, #8]
	drv_ctrl_write_cmd(CTRL_REG,
    1468:	4319      	orrs	r1, r3
    146a:	2000      	movs	r0, #0
    146c:	4b02      	ldr	r3, [pc, #8]	; (1478 <drv_ctrl_write_ctrl+0x28>)
    146e:	4798      	blx	r3
	drv_config.dead_time_insert);
	
}
    1470:	bd10      	pop	{r4, pc}
    1472:	46c0      	nop			; (mov r8, r8)
    1474:	20000060 	.word	0x20000060
    1478:	00001419 	.word	0x00001419

0000147c <drv_ctrl_init>:
	drv_config.hs_current);
	
}

    /* Initialize the stepper driver, drv_config_struct is defined in this file and exported in header. */
int drv_ctrl_init(struct drv_config_struct * const new_config) {
    147c:	b570      	push	{r4, r5, r6, lr}
    147e:	0001      	movs	r1, r0
	
	drv_config = *new_config;
    1480:	4c18      	ldr	r4, [pc, #96]	; (14e4 <drv_ctrl_init+0x68>)
    1482:	2226      	movs	r2, #38	; 0x26
    1484:	0020      	movs	r0, r4
    1486:	4b18      	ldr	r3, [pc, #96]	; (14e8 <drv_ctrl_init+0x6c>)
    1488:	4798      	blx	r3
	
	drv_ctrl_write_ctrl();			
    148a:	4b18      	ldr	r3, [pc, #96]	; (14ec <drv_ctrl_init+0x70>)
    148c:	4798      	blx	r3
	drv_config.drv_torque |
    148e:	7aa1      	ldrb	r1, [r4, #10]
	drv_ctrl_write_cmd(TORQUE_REG,
    1490:	89a3      	ldrh	r3, [r4, #12]
    1492:	4319      	orrs	r1, r3
    1494:	2001      	movs	r0, #1
    1496:	4d16      	ldr	r5, [pc, #88]	; (14f0 <drv_ctrl_init+0x74>)
    1498:	47a8      	blx	r5
    drv_config.drv_toff |
    149a:	7ba1      	ldrb	r1, [r4, #14]
    drv_ctrl_write_cmd(OFF_REG,
    149c:	8a23      	ldrh	r3, [r4, #16]
    149e:	4319      	orrs	r1, r3
    14a0:	2002      	movs	r0, #2
    14a2:	47a8      	blx	r5
	drv_config.drv_tblank |
    14a4:	7ca1      	ldrb	r1, [r4, #18]
	drv_ctrl_write_cmd(BLANK_REG,
    14a6:	8aa3      	ldrh	r3, [r4, #20]
    14a8:	4319      	orrs	r1, r3
    14aa:	2003      	movs	r0, #3
    14ac:	47a8      	blx	r5
	drv_ctrl_write_cmd(DECAY_REG,
    14ae:	7da1      	ldrb	r1, [r4, #22]
    14b0:	7de3      	ldrb	r3, [r4, #23]
    14b2:	4319      	orrs	r1, r3
    14b4:	2004      	movs	r0, #4
    14b6:	47a8      	blx	r5
	drv_config.drv_sdthr |
    14b8:	7e21      	ldrb	r1, [r4, #24]
    14ba:	8b63      	ldrh	r3, [r4, #26]
    14bc:	4319      	orrs	r1, r3
	drv_config.stall_count |
    14be:	8ba3      	ldrh	r3, [r4, #28]
	drv_ctrl_write_cmd(STALL_REG,
    14c0:	4319      	orrs	r1, r3
    14c2:	2005      	movs	r0, #5
    14c4:	47a8      	blx	r5
	drv_config.hs_drive_time |
    14c6:	7fa1      	ldrb	r1, [r4, #30]
    14c8:	2320      	movs	r3, #32
    14ca:	5ce3      	ldrb	r3, [r4, r3]
    14cc:	4319      	orrs	r1, r3
    14ce:	2321      	movs	r3, #33	; 0x21
    14d0:	5ce3      	ldrb	r3, [r4, r3]
    14d2:	4319      	orrs	r1, r3
    14d4:	8c63      	ldrh	r3, [r4, #34]	; 0x22
    14d6:	4319      	orrs	r1, r3
	drv_config.ls_current |
    14d8:	8ca3      	ldrh	r3, [r4, #36]	; 0x24
	drv_ctrl_write_cmd(DRIVE_REG,
    14da:	4319      	orrs	r1, r3
    14dc:	2006      	movs	r0, #6
    14de:	47a8      	blx	r5
	drv_ctrl_write_decay();			
	drv_ctrl_write_stall();			
	drv_ctrl_write_drive();	
			
	return EXIT_SUCCESS;
}
    14e0:	2000      	movs	r0, #0
    14e2:	bd70      	pop	{r4, r5, r6, pc}
    14e4:	20000060 	.word	0x20000060
    14e8:	00002831 	.word	0x00002831
    14ec:	00001451 	.word	0x00001451
    14f0:	00001419 	.word	0x00001419

000014f4 <drv_ctrl_enable>:

int drv_ctrl_enable(){
    14f4:	b510      	push	{r4, lr}
	
	drv_config.enable = DRV_ENABLE;
    14f6:	2201      	movs	r2, #1
    14f8:	4b02      	ldr	r3, [pc, #8]	; (1504 <drv_ctrl_enable+0x10>)
    14fa:	701a      	strb	r2, [r3, #0]
	drv_ctrl_write_ctrl();
    14fc:	4b02      	ldr	r3, [pc, #8]	; (1508 <drv_ctrl_enable+0x14>)
    14fe:	4798      	blx	r3
	
	return EXIT_SUCCESS;
}
    1500:	2000      	movs	r0, #0
    1502:	bd10      	pop	{r4, pc}
    1504:	20000060 	.word	0x20000060
    1508:	00001451 	.word	0x00001451

0000150c <force_sense_read_sense>:

static uint16_t force_sense_last_readout;
static uint16_t force_sense_zero_value;

    /* Reads the voltage from the INA via ADC, save the raw value in memory. Returns 1 on success and 0 on error*/
static int force_sense_read_sense(void) {
    150c:	b570      	push	{r4, r5, r6, lr}
		struct adc_module *const module_inst)
{
	Assert(module_inst);
	Assert(module_inst->hw);

	Adc *const adc_module = module_inst->hw;
    150e:	4b1e      	ldr	r3, [pc, #120]	; (1588 <force_sense_read_sense+0x7c>)
    1510:	6818      	ldr	r0, [r3, #0]
    1512:	7e43      	ldrb	r3, [r0, #25]

	while (adc_is_syncing(module_inst)) {
    1514:	b25b      	sxtb	r3, r3
    1516:	2b00      	cmp	r3, #0
    1518:	dbfb      	blt.n	1512 <force_sense_read_sense+0x6>
		/* Wait for synchronization */
	}

	adc_module->SWTRIG.reg |= ADC_SWTRIG_START;
    151a:	7b03      	ldrb	r3, [r0, #12]
    151c:	2202      	movs	r2, #2
    151e:	4313      	orrs	r3, r2
    1520:	7303      	strb	r3, [r0, #12]
    1522:	7e43      	ldrb	r3, [r0, #25]

	while (adc_is_syncing(module_inst)) {
    1524:	b25b      	sxtb	r3, r3
    1526:	2b00      	cmp	r3, #0
    1528:	dbfb      	blt.n	1522 <force_sense_read_sense+0x16>
	if (int_flags & ADC_INTFLAG_RESRDY) {
    152a:	2101      	movs	r1, #1
	if (int_flags & ADC_INTFLAG_WINMON) {
    152c:	2504      	movs	r5, #4
		status_flags |= ADC_STATUS_WINDOW;
    152e:	2402      	movs	r4, #2
    1530:	e001      	b.n	1536 <force_sense_read_sense+0x2a>
{
	Assert(module_inst);
	Assert(module_inst->hw);
	Assert(result);

	if (!(adc_get_status(module_inst) & ADC_STATUS_RESULT_READY)) {
    1532:	4211      	tst	r1, r2
    1534:	d10a      	bne.n	154c <force_sense_read_sense+0x40>
	uint32_t int_flags = adc_module->INTFLAG.reg;
    1536:	7e03      	ldrb	r3, [r0, #24]
    1538:	b2db      	uxtb	r3, r3
	if (int_flags & ADC_INTFLAG_RESRDY) {
    153a:	000a      	movs	r2, r1
    153c:	401a      	ands	r2, r3
	if (int_flags & ADC_INTFLAG_WINMON) {
    153e:	421d      	tst	r5, r3
    1540:	d000      	beq.n	1544 <force_sense_read_sense+0x38>
		status_flags |= ADC_STATUS_WINDOW;
    1542:	4322      	orrs	r2, r4
	if (int_flags & ADC_INTFLAG_OVERRUN) {
    1544:	421c      	tst	r4, r3
    1546:	d0f4      	beq.n	1532 <force_sense_read_sense+0x26>
		status_flags |= ADC_STATUS_OVERRUN;
    1548:	432a      	orrs	r2, r5
    154a:	e7f2      	b.n	1532 <force_sense_read_sense+0x26>
    154c:	7e43      	ldrb	r3, [r0, #25]
	}

	Adc *const adc_module = module_inst->hw;

#if (SAMD) || (SAMHA1) || (SAMHA0) || (SAMR21)
	while (adc_is_syncing(module_inst)) {
    154e:	b25b      	sxtb	r3, r3
    1550:	2b00      	cmp	r3, #0
    1552:	dbfb      	blt.n	154c <force_sense_read_sense+0x40>
		/* Wait for synchronization */
	}
#endif

	/* Get ADC result */
	*result = adc_module->RESULT.reg;
    1554:	8b41      	ldrh	r1, [r0, #26]
    1556:	b289      	uxth	r1, r1
    1558:	4b0c      	ldr	r3, [pc, #48]	; (158c <force_sense_read_sense+0x80>)
    155a:	8019      	strh	r1, [r3, #0]
	adc_module->INTFLAG.reg = int_flags;
    155c:	2301      	movs	r3, #1
    155e:	7603      	strb	r3, [r0, #24]
	uint32_t int_flags = adc_module->INTFLAG.reg;
    1560:	7e02      	ldrb	r2, [r0, #24]
    1562:	b2d2      	uxtb	r2, r2
	if (int_flags & ADC_INTFLAG_RESRDY) {
    1564:	4013      	ands	r3, r2
	if (int_flags & ADC_INTFLAG_WINMON) {
    1566:	0754      	lsls	r4, r2, #29
    1568:	d501      	bpl.n	156e <force_sense_read_sense+0x62>
		status_flags |= ADC_STATUS_WINDOW;
    156a:	2402      	movs	r4, #2
    156c:	4323      	orrs	r3, r4
	if (int_flags & ADC_INTFLAG_OVERRUN) {
    156e:	0792      	lsls	r2, r2, #30
    1570:	d501      	bpl.n	1576 <force_sense_read_sense+0x6a>
		status_flags |= ADC_STATUS_OVERRUN;
    1572:	2204      	movs	r2, #4
    1574:	4313      	orrs	r3, r2

	/* Reset ready flag */
	adc_clear_status(module_inst, ADC_STATUS_RESULT_READY);

	if (adc_get_status(module_inst) & ADC_STATUS_OVERRUN) {
    1576:	075b      	lsls	r3, r3, #29
    1578:	d501      	bpl.n	157e <force_sense_read_sense+0x72>
	adc_module->INTFLAG.reg = int_flags;
    157a:	2302      	movs	r3, #2
    157c:	7603      	strb	r3, [r0, #24]
	
	while(adc_read(&adc_instance, &force_sense_last_readout) == STATUS_BUSY){
		//Wait till conversion is finished
	}
	
	rprintf("%d \n\r", force_sense_last_readout);
    157e:	4804      	ldr	r0, [pc, #16]	; (1590 <force_sense_read_sense+0x84>)
    1580:	4b04      	ldr	r3, [pc, #16]	; (1594 <force_sense_read_sense+0x88>)
    1582:	4798      	blx	r3
	
	return EXIT_SUCCESS;
}
    1584:	2000      	movs	r0, #0
    1586:	bd70      	pop	{r4, r5, r6, pc}
    1588:	20000120 	.word	0x20000120
    158c:	20000086 	.word	0x20000086
    1590:	00002990 	.word	0x00002990
    1594:	000018a5 	.word	0x000018a5

00001598 <force_sense_calibrate>:

    /* Read the force sensor and set the value as new zero value.
	 * Returns 1 on success and 0 on failure
	 */
int force_sense_calibrate() {
    1598:	b510      	push	{r4, lr}
	
	force_sense_read_sense();
    159a:	4b04      	ldr	r3, [pc, #16]	; (15ac <force_sense_calibrate+0x14>)
    159c:	4798      	blx	r3
	force_sense_zero_value = force_sense_last_readout;
    159e:	4b04      	ldr	r3, [pc, #16]	; (15b0 <force_sense_calibrate+0x18>)
    15a0:	881a      	ldrh	r2, [r3, #0]
    15a2:	4b04      	ldr	r3, [pc, #16]	; (15b4 <force_sense_calibrate+0x1c>)
    15a4:	801a      	strh	r2, [r3, #0]
	
	return EXIT_SUCCESS;
}
    15a6:	2000      	movs	r0, #0
    15a8:	bd10      	pop	{r4, pc}
    15aa:	46c0      	nop			; (mov r8, r8)
    15ac:	0000150d 	.word	0x0000150d
    15b0:	20000086 	.word	0x20000086
    15b4:	20000088 	.word	0x20000088

000015b8 <plc_com_send_cmd>:
			}
	}
}
    

static void plc_com_send_cmd(bool force_tx, enum states state, uint16_t force) {
    15b8:	b500      	push	{lr}
    15ba:	b083      	sub	sp, #12
	
	uint8_t tx_buffer[4];
	uint16_t len;
	
	if(force_tx) {
    15bc:	2800      	cmp	r0, #0
    15be:	d10b      	bne.n	15d8 <plc_com_send_cmd+0x20>
		tx_buffer[1] = (force >> 4);
		tx_buffer[2] = (force & 0xFF);
		tx_buffer[3] = EOT;
	} else {
		len = 3;
		tx_buffer[0] = 'S';
    15c0:	ab01      	add	r3, sp, #4
    15c2:	2253      	movs	r2, #83	; 0x53
    15c4:	701a      	strb	r2, [r3, #0]
		tx_buffer[1] = state;
    15c6:	7059      	strb	r1, [r3, #1]
		tx_buffer[2] = EOT;
    15c8:	3a50      	subs	r2, #80	; 0x50
    15ca:	709a      	strb	r2, [r3, #2]
	}
		
	usart_write_buffer_wait(&usart_instance, tx_buffer, len);
    15cc:	a901      	add	r1, sp, #4
    15ce:	4807      	ldr	r0, [pc, #28]	; (15ec <plc_com_send_cmd+0x34>)
    15d0:	4b07      	ldr	r3, [pc, #28]	; (15f0 <plc_com_send_cmd+0x38>)
    15d2:	4798      	blx	r3
}
    15d4:	b003      	add	sp, #12
    15d6:	bd00      	pop	{pc}
		tx_buffer[0] = 'F';
    15d8:	ab01      	add	r3, sp, #4
    15da:	2146      	movs	r1, #70	; 0x46
    15dc:	7019      	strb	r1, [r3, #0]
		tx_buffer[1] = (force >> 4);
    15de:	0911      	lsrs	r1, r2, #4
    15e0:	7059      	strb	r1, [r3, #1]
		tx_buffer[2] = (force & 0xFF);
    15e2:	709a      	strb	r2, [r3, #2]
		tx_buffer[3] = EOT;
    15e4:	2203      	movs	r2, #3
    15e6:	70da      	strb	r2, [r3, #3]
		len = 4;
    15e8:	3201      	adds	r2, #1
    15ea:	e7ef      	b.n	15cc <plc_com_send_cmd+0x14>
    15ec:	200000f0 	.word	0x200000f0
    15f0:	000011d5 	.word	0x000011d5

000015f4 <plc_com_arm_receiver>:
	
	plc_com_send_cmd(false, s_success, 0);
	
}

void plc_com_arm_receiver() {
    15f4:	b510      	push	{r4, lr}
	
	usart_read_job(&usart_instance, &rx_buffer);
    15f6:	4902      	ldr	r1, [pc, #8]	; (1600 <plc_com_arm_receiver+0xc>)
    15f8:	4802      	ldr	r0, [pc, #8]	; (1604 <plc_com_arm_receiver+0x10>)
    15fa:	4b03      	ldr	r3, [pc, #12]	; (1608 <plc_com_arm_receiver+0x14>)
    15fc:	4798      	blx	r3
}
    15fe:	bd10      	pop	{r4, pc}
    1600:	200000c8 	.word	0x200000c8
    1604:	200000f0 	.word	0x200000f0
    1608:	000012e5 	.word	0x000012e5

0000160c <plc_com_receive_callback>:

void plc_com_receive_callback() {
    160c:	b510      	push	{r4, lr}
	static uint8_t symbol_counter = 0;
	static enum commands command;
	static uint8_t specifier;
	static bool await_eot = false;
	
	if(get_state() != idle) {
    160e:	4b6e      	ldr	r3, [pc, #440]	; (17c8 <plc_com_receive_callback+0x1bc>)
    1610:	4798      	blx	r3
    1612:	2800      	cmp	r0, #0
    1614:	d126      	bne.n	1664 <plc_com_receive_callback+0x58>
		plc_com_send_cmd(false, s_busy, 0);
		plc_com_arm_receiver();
		return;
	}
	
	if(symbol_counter == 0) {
    1616:	4b6d      	ldr	r3, [pc, #436]	; (17cc <plc_com_receive_callback+0x1c0>)
    1618:	781a      	ldrb	r2, [r3, #0]
    161a:	2a00      	cmp	r2, #0
    161c:	d12a      	bne.n	1674 <plc_com_receive_callback+0x68>
		command = 0;
    161e:	2300      	movs	r3, #0
    1620:	4a6b      	ldr	r2, [pc, #428]	; (17d0 <plc_com_receive_callback+0x1c4>)
    1622:	7013      	strb	r3, [r2, #0]
		specifier = 0;
    1624:	4a6b      	ldr	r2, [pc, #428]	; (17d4 <plc_com_receive_callback+0x1c8>)
    1626:	7013      	strb	r3, [r2, #0]
	}
	
	if(((rx_buffer == EOT) != await_eot) || symbol_counter > 2 ) {
    1628:	4b6b      	ldr	r3, [pc, #428]	; (17d8 <plc_com_receive_callback+0x1cc>)
    162a:	881a      	ldrh	r2, [r3, #0]
    162c:	4b6b      	ldr	r3, [pc, #428]	; (17dc <plc_com_receive_callback+0x1d0>)
    162e:	7819      	ldrb	r1, [r3, #0]
    1630:	1ed3      	subs	r3, r2, #3
    1632:	4258      	negs	r0, r3
    1634:	4143      	adcs	r3, r0
    1636:	b2db      	uxtb	r3, r3
    1638:	428b      	cmp	r3, r1
    163a:	d128      	bne.n	168e <plc_com_receive_callback+0x82>
		symbol_counter = 0;
		plc_com_arm_receiver();
		return;
	}
	
	if(rx_buffer == EOT) {
    163c:	2900      	cmp	r1, #0
    163e:	d131      	bne.n	16a4 <plc_com_receive_callback+0x98>
		plc_com_arm_receiver();
		return;
	}
	
	if(symbol_counter == 0) {
	    switch(rx_buffer) {
    1640:	2a49      	cmp	r2, #73	; 0x49
    1642:	d100      	bne.n	1646 <plc_com_receive_callback+0x3a>
    1644:	e07d      	b.n	1742 <plc_com_receive_callback+0x136>
    1646:	d800      	bhi.n	164a <plc_com_receive_callback+0x3e>
    1648:	e072      	b.n	1730 <plc_com_receive_callback+0x124>
    164a:	2a4d      	cmp	r2, #77	; 0x4d
    164c:	d100      	bne.n	1650 <plc_com_receive_callback+0x44>
    164e:	e085      	b.n	175c <plc_com_receive_callback+0x150>
    1650:	2a54      	cmp	r2, #84	; 0x54
    1652:	d000      	beq.n	1656 <plc_com_receive_callback+0x4a>
    1654:	e089      	b.n	176a <plc_com_receive_callback+0x15e>
			case('M'):
			    command = c_move;
				await_eot = false;
				break;
			case('T'):
			    command = c_tool;
    1656:	2254      	movs	r2, #84	; 0x54
    1658:	4b5d      	ldr	r3, [pc, #372]	; (17d0 <plc_com_receive_callback+0x1c4>)
    165a:	701a      	strb	r2, [r3, #0]
				await_eot = true;
    165c:	3a53      	subs	r2, #83	; 0x53
    165e:	4b5f      	ldr	r3, [pc, #380]	; (17dc <plc_com_receive_callback+0x1d0>)
    1660:	701a      	strb	r2, [r3, #0]
				break;
    1662:	e074      	b.n	174e <plc_com_receive_callback+0x142>
		plc_com_send_cmd(false, s_busy, 0);
    1664:	2200      	movs	r2, #0
    1666:	2162      	movs	r1, #98	; 0x62
    1668:	2000      	movs	r0, #0
    166a:	4b5d      	ldr	r3, [pc, #372]	; (17e0 <plc_com_receive_callback+0x1d4>)
    166c:	4798      	blx	r3
		plc_com_arm_receiver();
    166e:	4b5d      	ldr	r3, [pc, #372]	; (17e4 <plc_com_receive_callback+0x1d8>)
    1670:	4798      	blx	r3
		return;
    1672:	e016      	b.n	16a2 <plc_com_receive_callback+0x96>
	if(((rx_buffer == EOT) != await_eot) || symbol_counter > 2 ) {
    1674:	4b58      	ldr	r3, [pc, #352]	; (17d8 <plc_com_receive_callback+0x1cc>)
    1676:	8819      	ldrh	r1, [r3, #0]
    1678:	1ecb      	subs	r3, r1, #3
    167a:	4258      	negs	r0, r3
    167c:	4143      	adcs	r3, r0
    167e:	b2db      	uxtb	r3, r3
    1680:	4856      	ldr	r0, [pc, #344]	; (17dc <plc_com_receive_callback+0x1d0>)
    1682:	7800      	ldrb	r0, [r0, #0]
    1684:	4283      	cmp	r3, r0
    1686:	d102      	bne.n	168e <plc_com_receive_callback+0x82>
    1688:	2a02      	cmp	r2, #2
    168a:	d800      	bhi.n	168e <plc_com_receive_callback+0x82>
    168c:	e08c      	b.n	17a8 <plc_com_receive_callback+0x19c>
		plc_com_send_cmd(false, s_unknown, 0);
    168e:	2200      	movs	r2, #0
    1690:	2175      	movs	r1, #117	; 0x75
    1692:	2000      	movs	r0, #0
    1694:	4b52      	ldr	r3, [pc, #328]	; (17e0 <plc_com_receive_callback+0x1d4>)
    1696:	4798      	blx	r3
		symbol_counter = 0;
    1698:	2200      	movs	r2, #0
    169a:	4b4c      	ldr	r3, [pc, #304]	; (17cc <plc_com_receive_callback+0x1c0>)
    169c:	701a      	strb	r2, [r3, #0]
		plc_com_arm_receiver();
    169e:	4b51      	ldr	r3, [pc, #324]	; (17e4 <plc_com_receive_callback+0x1d8>)
    16a0:	4798      	blx	r3
		}
		symbol_counter++;
		await_eot = true;
		return;
	}
}
    16a2:	bd10      	pop	{r4, pc}
		set_state(busy);
    16a4:	2001      	movs	r0, #1
    16a6:	4b50      	ldr	r3, [pc, #320]	; (17e8 <plc_com_receive_callback+0x1dc>)
    16a8:	4798      	blx	r3
		plc_com_send_cmd(false, s_acknowledge, 0);
    16aa:	2200      	movs	r2, #0
    16ac:	2161      	movs	r1, #97	; 0x61
    16ae:	2000      	movs	r0, #0
    16b0:	4b4b      	ldr	r3, [pc, #300]	; (17e0 <plc_com_receive_callback+0x1d4>)
    16b2:	4798      	blx	r3
		plc_com_plc_to_state(command, specifier);
    16b4:	4b46      	ldr	r3, [pc, #280]	; (17d0 <plc_com_receive_callback+0x1c4>)
	switch(command){
    16b6:	781b      	ldrb	r3, [r3, #0]
    16b8:	2b49      	cmp	r3, #73	; 0x49
    16ba:	d010      	beq.n	16de <plc_com_receive_callback+0xd2>
    16bc:	b2da      	uxtb	r2, r3
    16be:	2a49      	cmp	r2, #73	; 0x49
    16c0:	d907      	bls.n	16d2 <plc_com_receive_callback+0xc6>
    16c2:	2b4d      	cmp	r3, #77	; 0x4d
    16c4:	d016      	beq.n	16f4 <plc_com_receive_callback+0xe8>
    16c6:	2b54      	cmp	r3, #84	; 0x54
    16c8:	d10c      	bne.n	16e4 <plc_com_receive_callback+0xd8>
		    set_state(get_tool);
    16ca:	2005      	movs	r0, #5
    16cc:	4b46      	ldr	r3, [pc, #280]	; (17e8 <plc_com_receive_callback+0x1dc>)
    16ce:	4798      	blx	r3
    16d0:	e008      	b.n	16e4 <plc_com_receive_callback+0xd8>
	switch(command){
    16d2:	2b46      	cmp	r3, #70	; 0x46
    16d4:	d106      	bne.n	16e4 <plc_com_receive_callback+0xd8>
			set_state(get_force);
    16d6:	200a      	movs	r0, #10
    16d8:	4b43      	ldr	r3, [pc, #268]	; (17e8 <plc_com_receive_callback+0x1dc>)
    16da:	4798      	blx	r3
    16dc:	e002      	b.n	16e4 <plc_com_receive_callback+0xd8>
			set_state(init);
    16de:	2002      	movs	r0, #2
    16e0:	4b41      	ldr	r3, [pc, #260]	; (17e8 <plc_com_receive_callback+0x1dc>)
    16e2:	4798      	blx	r3
		symbol_counter = 0;
    16e4:	2300      	movs	r3, #0
    16e6:	4a39      	ldr	r2, [pc, #228]	; (17cc <plc_com_receive_callback+0x1c0>)
    16e8:	7013      	strb	r3, [r2, #0]
		await_eot = false;
    16ea:	4a3c      	ldr	r2, [pc, #240]	; (17dc <plc_com_receive_callback+0x1d0>)
    16ec:	7013      	strb	r3, [r2, #0]
		plc_com_arm_receiver();
    16ee:	4b3d      	ldr	r3, [pc, #244]	; (17e4 <plc_com_receive_callback+0x1d8>)
    16f0:	4798      	blx	r3
		return;
    16f2:	e7d6      	b.n	16a2 <plc_com_receive_callback+0x96>
		plc_com_plc_to_state(command, specifier);
    16f4:	4b37      	ldr	r3, [pc, #220]	; (17d4 <plc_com_receive_callback+0x1c8>)
		    switch(specifier) {
    16f6:	781b      	ldrb	r3, [r3, #0]
    16f8:	3b63      	subs	r3, #99	; 0x63
    16fa:	b2da      	uxtb	r2, r3
    16fc:	2a12      	cmp	r2, #18
    16fe:	d8f1      	bhi.n	16e4 <plc_com_receive_callback+0xd8>
    1700:	0093      	lsls	r3, r2, #2
    1702:	4a3a      	ldr	r2, [pc, #232]	; (17ec <plc_com_receive_callback+0x1e0>)
    1704:	58d3      	ldr	r3, [r2, r3]
    1706:	469f      	mov	pc, r3
				    set_state(pick);
    1708:	2003      	movs	r0, #3
    170a:	4b37      	ldr	r3, [pc, #220]	; (17e8 <plc_com_receive_callback+0x1dc>)
    170c:	4798      	blx	r3
    170e:	e7e9      	b.n	16e4 <plc_com_receive_callback+0xd8>
				    set_state(place);
    1710:	2004      	movs	r0, #4
    1712:	4b35      	ldr	r3, [pc, #212]	; (17e8 <plc_com_receive_callback+0x1dc>)
    1714:	4798      	blx	r3
    1716:	e7e5      	b.n	16e4 <plc_com_receive_callback+0xd8>
				    set_state(close_lid);
    1718:	2009      	movs	r0, #9
    171a:	4b33      	ldr	r3, [pc, #204]	; (17e8 <plc_com_receive_callback+0x1dc>)
    171c:	4798      	blx	r3
    171e:	e7e1      	b.n	16e4 <plc_com_receive_callback+0xd8>
				    set_state(stamp);
    1720:	2007      	movs	r0, #7
    1722:	4b31      	ldr	r3, [pc, #196]	; (17e8 <plc_com_receive_callback+0x1dc>)
    1724:	4798      	blx	r3
    1726:	e7dd      	b.n	16e4 <plc_com_receive_callback+0xd8>
				    set_state(soak);
    1728:	2008      	movs	r0, #8
    172a:	4b2f      	ldr	r3, [pc, #188]	; (17e8 <plc_com_receive_callback+0x1dc>)
    172c:	4798      	blx	r3
    172e:	e7d9      	b.n	16e4 <plc_com_receive_callback+0xd8>
	    switch(rx_buffer) {
    1730:	2a46      	cmp	r2, #70	; 0x46
    1732:	d11a      	bne.n	176a <plc_com_receive_callback+0x15e>
			    command = c_force;
    1734:	2246      	movs	r2, #70	; 0x46
    1736:	4b26      	ldr	r3, [pc, #152]	; (17d0 <plc_com_receive_callback+0x1c4>)
    1738:	701a      	strb	r2, [r3, #0]
				await_eot = true;
    173a:	3a45      	subs	r2, #69	; 0x45
    173c:	4b27      	ldr	r3, [pc, #156]	; (17dc <plc_com_receive_callback+0x1d0>)
    173e:	701a      	strb	r2, [r3, #0]
				break;
    1740:	e005      	b.n	174e <plc_com_receive_callback+0x142>
			    command = c_init;
    1742:	2249      	movs	r2, #73	; 0x49
    1744:	4b22      	ldr	r3, [pc, #136]	; (17d0 <plc_com_receive_callback+0x1c4>)
    1746:	701a      	strb	r2, [r3, #0]
				await_eot = true;
    1748:	3a48      	subs	r2, #72	; 0x48
    174a:	4b24      	ldr	r3, [pc, #144]	; (17dc <plc_com_receive_callback+0x1d0>)
    174c:	701a      	strb	r2, [r3, #0]
		symbol_counter++;
    174e:	4a1f      	ldr	r2, [pc, #124]	; (17cc <plc_com_receive_callback+0x1c0>)
    1750:	7813      	ldrb	r3, [r2, #0]
    1752:	3301      	adds	r3, #1
    1754:	7013      	strb	r3, [r2, #0]
		plc_com_arm_receiver();
    1756:	4b23      	ldr	r3, [pc, #140]	; (17e4 <plc_com_receive_callback+0x1d8>)
    1758:	4798      	blx	r3
		return;
    175a:	e7a2      	b.n	16a2 <plc_com_receive_callback+0x96>
			    command = c_move;
    175c:	224d      	movs	r2, #77	; 0x4d
    175e:	4b1c      	ldr	r3, [pc, #112]	; (17d0 <plc_com_receive_callback+0x1c4>)
    1760:	701a      	strb	r2, [r3, #0]
				await_eot = false;
    1762:	2200      	movs	r2, #0
    1764:	4b1d      	ldr	r3, [pc, #116]	; (17dc <plc_com_receive_callback+0x1d0>)
    1766:	701a      	strb	r2, [r3, #0]
				break;
    1768:	e7f1      	b.n	174e <plc_com_receive_callback+0x142>
			    plc_com_send_cmd(false, s_unknown, 0);
    176a:	2200      	movs	r2, #0
    176c:	2175      	movs	r1, #117	; 0x75
    176e:	2000      	movs	r0, #0
    1770:	4b1b      	ldr	r3, [pc, #108]	; (17e0 <plc_com_receive_callback+0x1d4>)
    1772:	4798      	blx	r3
				symbol_counter = 0;
    1774:	2200      	movs	r2, #0
    1776:	4b15      	ldr	r3, [pc, #84]	; (17cc <plc_com_receive_callback+0x1c0>)
    1778:	701a      	strb	r2, [r3, #0]
				plc_com_arm_receiver();
    177a:	4b1a      	ldr	r3, [pc, #104]	; (17e4 <plc_com_receive_callback+0x1d8>)
    177c:	4798      	blx	r3
				return;
    177e:	e790      	b.n	16a2 <plc_com_receive_callback+0x96>
			    specifier = rx_buffer;
    1780:	4b14      	ldr	r3, [pc, #80]	; (17d4 <plc_com_receive_callback+0x1c8>)
    1782:	7019      	strb	r1, [r3, #0]
		symbol_counter++;
    1784:	2202      	movs	r2, #2
    1786:	4b11      	ldr	r3, [pc, #68]	; (17cc <plc_com_receive_callback+0x1c0>)
    1788:	701a      	strb	r2, [r3, #0]
		await_eot = true;
    178a:	3a01      	subs	r2, #1
    178c:	4b13      	ldr	r3, [pc, #76]	; (17dc <plc_com_receive_callback+0x1d0>)
    178e:	701a      	strb	r2, [r3, #0]
		return;
    1790:	e787      	b.n	16a2 <plc_com_receive_callback+0x96>
				plc_com_send_cmd(false, s_unknown, 0);
    1792:	2200      	movs	r2, #0
    1794:	2175      	movs	r1, #117	; 0x75
    1796:	2000      	movs	r0, #0
    1798:	4b11      	ldr	r3, [pc, #68]	; (17e0 <plc_com_receive_callback+0x1d4>)
    179a:	4798      	blx	r3
				symbol_counter = 0;
    179c:	2200      	movs	r2, #0
    179e:	4b0b      	ldr	r3, [pc, #44]	; (17cc <plc_com_receive_callback+0x1c0>)
    17a0:	701a      	strb	r2, [r3, #0]
				plc_com_arm_receiver();
    17a2:	4b10      	ldr	r3, [pc, #64]	; (17e4 <plc_com_receive_callback+0x1d8>)
    17a4:	4798      	blx	r3
				return;
    17a6:	e77c      	b.n	16a2 <plc_com_receive_callback+0x96>
	if(rx_buffer == EOT) {
    17a8:	2903      	cmp	r1, #3
    17aa:	d100      	bne.n	17ae <plc_com_receive_callback+0x1a2>
    17ac:	e77a      	b.n	16a4 <plc_com_receive_callback+0x98>
	if(symbol_counter == 1){
    17ae:	2a01      	cmp	r2, #1
    17b0:	d000      	beq.n	17b4 <plc_com_receive_callback+0x1a8>
    17b2:	e776      	b.n	16a2 <plc_com_receive_callback+0x96>
		switch(rx_buffer) {
    17b4:	000b      	movs	r3, r1
    17b6:	3b63      	subs	r3, #99	; 0x63
    17b8:	b29a      	uxth	r2, r3
    17ba:	2a12      	cmp	r2, #18
    17bc:	d8e9      	bhi.n	1792 <plc_com_receive_callback+0x186>
    17be:	0093      	lsls	r3, r2, #2
    17c0:	4a0b      	ldr	r2, [pc, #44]	; (17f0 <plc_com_receive_callback+0x1e4>)
    17c2:	58d3      	ldr	r3, [r2, r3]
    17c4:	469f      	mov	pc, r3
    17c6:	46c0      	nop			; (mov r8, r8)
    17c8:	000021a1 	.word	0x000021a1
    17cc:	2000008d 	.word	0x2000008d
    17d0:	2000008b 	.word	0x2000008b
    17d4:	2000008c 	.word	0x2000008c
    17d8:	200000c8 	.word	0x200000c8
    17dc:	2000008a 	.word	0x2000008a
    17e0:	000015b9 	.word	0x000015b9
    17e4:	000015f5 	.word	0x000015f5
    17e8:	00002195 	.word	0x00002195
    17ec:	00002998 	.word	0x00002998
    17f0:	000029e4 	.word	0x000029e4

000017f4 <iputc>:
#include "rprintf.h"

struct usart_module my_usart_instance;

static void iputc(uint8_t ch)
{
    17f4:	b570      	push	{r4, r5, r6, lr}
 */
static inline enum status_code usart_serial_putchar(
		struct usart_module *const module,
		uint8_t c)
{
	while(STATUS_OK !=usart_write_wait(module, c));
    17f6:	b284      	uxth	r4, r0
    17f8:	4e03      	ldr	r6, [pc, #12]	; (1808 <iputc+0x14>)
    17fa:	4d04      	ldr	r5, [pc, #16]	; (180c <iputc+0x18>)
    17fc:	0021      	movs	r1, r4
    17fe:	0030      	movs	r0, r6
    1800:	47a8      	blx	r5
    1802:	2800      	cmp	r0, #0
    1804:	d1fa      	bne.n	17fc <iputc+0x8>
	/*This function has to be replaced by user*/	
	usart_serial_putchar(&my_usart_instance, ch);
}
    1806:	bd70      	pop	{r4, r5, r6, pc}
    1808:	200000cc 	.word	0x200000cc
    180c:	000011ad 	.word	0x000011ad

00001810 <rprintf_init>:
static uint8_t* change(uint32_t Index)
{
    return (uint8_t*)("0123456789abcdef"+Index);
}

void rprintf_init() {
    1810:	b570      	push	{r4, r5, r6, lr}
    1812:	b08c      	sub	sp, #48	; 0x30
{
	/* Sanity check arguments */
	Assert(config);

	/* Set default config in the config struct */
	config->data_order       = USART_DATAORDER_LSB;
    1814:	2380      	movs	r3, #128	; 0x80
    1816:	05db      	lsls	r3, r3, #23
    1818:	9300      	str	r3, [sp, #0]
	config->transfer_mode    = USART_TRANSFER_ASYNCHRONOUSLY;
    181a:	2300      	movs	r3, #0
    181c:	9301      	str	r3, [sp, #4]
	config->parity           = USART_PARITY_NONE;
    181e:	22ff      	movs	r2, #255	; 0xff
    1820:	4669      	mov	r1, sp
    1822:	810a      	strh	r2, [r1, #8]
	config->stopbits         = USART_STOPBITS_1;
    1824:	728b      	strb	r3, [r1, #10]
	config->character_size   = USART_CHARACTER_SIZE_8BIT;
    1826:	72cb      	strb	r3, [r1, #11]
	config->baudrate         = 9600;
    1828:	2296      	movs	r2, #150	; 0x96
    182a:	0192      	lsls	r2, r2, #6
    182c:	9204      	str	r2, [sp, #16]
	config->receiver_enable  = true;
    182e:	2401      	movs	r4, #1
    1830:	466a      	mov	r2, sp
    1832:	750c      	strb	r4, [r1, #20]
	config->transmitter_enable = true;
    1834:	754c      	strb	r4, [r1, #21]
	config->clock_polarity_inverted = false;
    1836:	758b      	strb	r3, [r1, #22]
	config->use_external_clock = false;
    1838:	75cb      	strb	r3, [r1, #23]
	config->ext_clock_freq   = 0;
    183a:	9306      	str	r3, [sp, #24]
	config->mux_setting      = USART_RX_1_TX_2_XCK_3;
	config->run_in_standby   = false;
    183c:	770b      	strb	r3, [r1, #28]
	config->generator_source = GCLK_GENERATOR_0;
    183e:	774b      	strb	r3, [r1, #29]
    struct usart_config my_config_usart;

    usart_get_config_defaults(&my_config_usart);

    my_config_usart.baudrate    = 9600;
	my_config_usart.mux_setting = EDBG_CDC_SERCOM_MUX_SETTING;
    1840:	23c4      	movs	r3, #196	; 0xc4
    1842:	039b      	lsls	r3, r3, #14
    1844:	9303      	str	r3, [sp, #12]
    my_config_usart.pinmux_pad0 = EDBG_CDC_SERCOM_PINMUX_PAD0;
    1846:	2301      	movs	r3, #1
    1848:	425b      	negs	r3, r3
    184a:	9308      	str	r3, [sp, #32]
    my_config_usart.pinmux_pad1 = EDBG_CDC_SERCOM_PINMUX_PAD1;
    184c:	9309      	str	r3, [sp, #36]	; 0x24
    my_config_usart.pinmux_pad2 = EDBG_CDC_SERCOM_PINMUX_PAD2;
    184e:	4b0e      	ldr	r3, [pc, #56]	; (1888 <rprintf_init+0x78>)
    1850:	930a      	str	r3, [sp, #40]	; 0x28
    my_config_usart.pinmux_pad3 = EDBG_CDC_SERCOM_PINMUX_PAD3;
    1852:	4b0e      	ldr	r3, [pc, #56]	; (188c <rprintf_init+0x7c>)
    1854:	930b      	str	r3, [sp, #44]	; 0x2c
	if (usart_init(module, hw, config) == STATUS_OK) {
    1856:	4e0e      	ldr	r6, [pc, #56]	; (1890 <rprintf_init+0x80>)
    1858:	490e      	ldr	r1, [pc, #56]	; (1894 <rprintf_init+0x84>)
    185a:	0030      	movs	r0, r6
    185c:	4b0e      	ldr	r3, [pc, #56]	; (1898 <rprintf_init+0x88>)
    185e:	4798      	blx	r3
	/* Sanity check arguments */
	Assert(module);
	Assert(module->hw);

	/* Get a pointer to the hardware module instance */
	SercomUsart *const usart_hw = &(module->hw->USART);
    1860:	6835      	ldr	r5, [r6, #0]

#if USART_CALLBACK_MODE == true
	/* Enable Global interrupt for module */
	system_interrupt_enable(_sercom_get_interrupt_vector(module->hw));
    1862:	0028      	movs	r0, r5
    1864:	4b0d      	ldr	r3, [pc, #52]	; (189c <rprintf_init+0x8c>)
    1866:	4798      	blx	r3
 * \param[in] vector Interrupt vector to enable
 */
static inline void system_interrupt_enable(
		const enum system_interrupt_vector vector)
{
	NVIC->ISER[0] = (uint32_t)(1 << ((uint32_t)vector & 0x0000001f));
    1868:	231f      	movs	r3, #31
    186a:	4018      	ands	r0, r3
    186c:	4084      	lsls	r4, r0
    186e:	4b0c      	ldr	r3, [pc, #48]	; (18a0 <rprintf_init+0x90>)
    1870:	601c      	str	r4, [r3, #0]
	SercomUsart *const usart_hw = &(module->hw->USART);
    1872:	6832      	ldr	r2, [r6, #0]
	return (usart_hw->STATUS.reg & SERCOM_USART_STATUS_SYNCBUSY);
    1874:	8a13      	ldrh	r3, [r2, #16]
	while (usart_is_syncing(module)) {
    1876:	b21b      	sxth	r3, r3
    1878:	2b00      	cmp	r3, #0
    187a:	dbfb      	blt.n	1874 <rprintf_init+0x64>

	/* Wait until synchronization is complete */
	_usart_wait_for_sync(module);

	/* Enable USART module */
	usart_hw->CTRLA.reg |= SERCOM_USART_CTRLA_ENABLE;
    187c:	682b      	ldr	r3, [r5, #0]
    187e:	2202      	movs	r2, #2
    1880:	4313      	orrs	r3, r2
    1882:	602b      	str	r3, [r5, #0]

    usart_serial_init(&my_usart_instance, EDBG_CDC_MODULE,&my_config_usart);
    usart_enable(&my_usart_instance);
}
    1884:	b00c      	add	sp, #48	; 0x30
    1886:	bd70      	pop	{r4, r5, r6, pc}
    1888:	00180002 	.word	0x00180002
    188c:	00190002 	.word	0x00190002
    1890:	200000cc 	.word	0x200000cc
    1894:	42001400 	.word	0x42001400
    1898:	00000f61 	.word	0x00000f61
    189c:	000009d1 	.word	0x000009d1
    18a0:	e000e100 	.word	0xe000e100

000018a4 <rprintf>:

void rprintf(const uint8_t *pszFmt,...)
{
    18a4:	b40f      	push	{r0, r1, r2, r3}
    18a6:	b5f0      	push	{r4, r5, r6, r7, lr}
    18a8:	46de      	mov	lr, fp
    18aa:	4657      	mov	r7, sl
    18ac:	464e      	mov	r6, r9
    18ae:	4645      	mov	r5, r8
    18b0:	b5e0      	push	{r5, r6, r7, lr}
    18b2:	b08f      	sub	sp, #60	; 0x3c
    uint8_t *pszVal;
    uint32_t iVal, xVal, i = 0, buffer[12], index = 1;
    18b4:	2401      	movs	r4, #1
                buffer[i++]=0;

            while(i > 0)
            {
                i--;
                iputc(*change(buffer[i]));
    18b6:	4b56      	ldr	r3, [pc, #344]	; (1a10 <rprintf+0x16c>)
    18b8:	469b      	mov	fp, r3
    while(*pszFmt)
    18ba:	e00d      	b.n	18d8 <rprintf+0x34>
        pszFmt++;
    18bc:	1c6a      	adds	r2, r5, #1
    18be:	9218      	str	r2, [sp, #96]	; 0x60
        if(*pszFmt == 's')
    18c0:	786b      	ldrb	r3, [r5, #1]
    18c2:	2b73      	cmp	r3, #115	; 0x73
    18c4:	d014      	beq.n	18f0 <rprintf+0x4c>
        if(*pszFmt == 'd')
    18c6:	2b64      	cmp	r3, #100	; 0x64
    18c8:	d025      	beq.n	1916 <rprintf+0x72>
        if(*pszFmt == 'c')
    18ca:	2b63      	cmp	r3, #99	; 0x63
    18cc:	d054      	beq.n	1978 <rprintf+0xd4>
        if(*pszFmt == 'x')
    18ce:	2b78      	cmp	r3, #120	; 0x78
    18d0:	d05e      	beq.n	1990 <rprintf+0xec>
            }
            pszFmt++;
            continue;
        }
        if(pszFmt == '\0')
    18d2:	2a00      	cmp	r2, #0
    18d4:	d100      	bne.n	18d8 <rprintf+0x34>
    18d6:	e090      	b.n	19fa <rprintf+0x156>
    while(*pszFmt)
    18d8:	9d18      	ldr	r5, [sp, #96]	; 0x60
    18da:	7828      	ldrb	r0, [r5, #0]
    18dc:	2800      	cmp	r0, #0
    18de:	d100      	bne.n	18e2 <rprintf+0x3e>
    18e0:	e08b      	b.n	19fa <rprintf+0x156>
        if('%' != *pszFmt)
    18e2:	2825      	cmp	r0, #37	; 0x25
    18e4:	d0ea      	beq.n	18bc <rprintf+0x18>
            iputc(*pszFmt);
    18e6:	4b4b      	ldr	r3, [pc, #300]	; (1a14 <rprintf+0x170>)
    18e8:	4798      	blx	r3
            pszFmt++;
    18ea:	3501      	adds	r5, #1
    18ec:	9518      	str	r5, [sp, #96]	; 0x60
            continue;
    18ee:	e7f3      	b.n	18d8 <rprintf+0x34>
            pszVal = (uint8_t*)pArg[index++];
    18f0:	1c67      	adds	r7, r4, #1
    18f2:	00a4      	lsls	r4, r4, #2
    18f4:	ab18      	add	r3, sp, #96	; 0x60
    18f6:	469c      	mov	ip, r3
    18f8:	4464      	add	r4, ip
    18fa:	6824      	ldr	r4, [r4, #0]
            for(; *pszVal != '\0'; pszVal++)
    18fc:	7820      	ldrb	r0, [r4, #0]
    18fe:	2800      	cmp	r0, #0
    1900:	d005      	beq.n	190e <rprintf+0x6a>
                iputc(*pszVal);
    1902:	4e44      	ldr	r6, [pc, #272]	; (1a14 <rprintf+0x170>)
    1904:	47b0      	blx	r6
            for(; *pszVal != '\0'; pszVal++)
    1906:	3401      	adds	r4, #1
    1908:	7820      	ldrb	r0, [r4, #0]
    190a:	2800      	cmp	r0, #0
    190c:	d1fa      	bne.n	1904 <rprintf+0x60>
            pszFmt++;
    190e:	3502      	adds	r5, #2
    1910:	9518      	str	r5, [sp, #96]	; 0x60
            pszVal = (uint8_t*)pArg[index++];
    1912:	003c      	movs	r4, r7
            continue;
    1914:	e7e0      	b.n	18d8 <rprintf+0x34>
            iVal = pArg[index++];
    1916:	1c63      	adds	r3, r4, #1
    1918:	9301      	str	r3, [sp, #4]
    191a:	00a4      	lsls	r4, r4, #2
    191c:	ab18      	add	r3, sp, #96	; 0x60
    191e:	469c      	mov	ip, r3
    1920:	4464      	add	r4, ip
    1922:	6826      	ldr	r6, [r4, #0]
    1924:	ab02      	add	r3, sp, #8
    1926:	4698      	mov	r8, r3
            i = 0;
    1928:	2700      	movs	r7, #0
                buffer[i++] = iVal % 10;
    192a:	4b3b      	ldr	r3, [pc, #236]	; (1a18 <rprintf+0x174>)
    192c:	469a      	mov	sl, r3
                iVal /= 10;
    192e:	4b3b      	ldr	r3, [pc, #236]	; (1a1c <rprintf+0x178>)
    1930:	4699      	mov	r9, r3
    1932:	e000      	b.n	1936 <rprintf+0x92>
                buffer[i++] = iVal % 10;
    1934:	0027      	movs	r7, r4
    1936:	1c7c      	adds	r4, r7, #1
    1938:	210a      	movs	r1, #10
    193a:	0030      	movs	r0, r6
    193c:	47d0      	blx	sl
    193e:	4643      	mov	r3, r8
    1940:	c302      	stmia	r3!, {r1}
    1942:	4698      	mov	r8, r3
                iVal /= 10;
    1944:	210a      	movs	r1, #10
    1946:	0030      	movs	r0, r6
    1948:	47c8      	blx	r9
    194a:	1e06      	subs	r6, r0, #0
            }while(iVal);
    194c:	d1f2      	bne.n	1934 <rprintf+0x90>
            while(i > 0)
    194e:	2c00      	cmp	r4, #0
    1950:	d00e      	beq.n	1970 <rprintf+0xcc>
    1952:	00bf      	lsls	r7, r7, #2
    1954:	ab02      	add	r3, sp, #8
    1956:	469c      	mov	ip, r3
    1958:	4467      	add	r7, ip
                iputc(*change(buffer[i]));
    195a:	4b2d      	ldr	r3, [pc, #180]	; (1a10 <rprintf+0x16c>)
    195c:	4698      	mov	r8, r3
    195e:	4e2d      	ldr	r6, [pc, #180]	; (1a14 <rprintf+0x170>)
                i--;
    1960:	3c01      	subs	r4, #1
                iputc(*change(buffer[i]));
    1962:	4643      	mov	r3, r8
    1964:	683a      	ldr	r2, [r7, #0]
    1966:	5c98      	ldrb	r0, [r3, r2]
    1968:	47b0      	blx	r6
    196a:	3f04      	subs	r7, #4
            while(i > 0)
    196c:	2c00      	cmp	r4, #0
    196e:	d1f7      	bne.n	1960 <rprintf+0xbc>
            pszFmt++;
    1970:	3502      	adds	r5, #2
    1972:	9518      	str	r5, [sp, #96]	; 0x60
            iVal = pArg[index++];
    1974:	9c01      	ldr	r4, [sp, #4]
            continue;
    1976:	e7af      	b.n	18d8 <rprintf+0x34>
            cVal = (uint8_t)pArg[index++];
    1978:	1c66      	adds	r6, r4, #1
    197a:	00a4      	lsls	r4, r4, #2
    197c:	ab18      	add	r3, sp, #96	; 0x60
    197e:	469c      	mov	ip, r3
    1980:	4464      	add	r4, ip
            iputc(cVal);
    1982:	7820      	ldrb	r0, [r4, #0]
    1984:	4b23      	ldr	r3, [pc, #140]	; (1a14 <rprintf+0x170>)
    1986:	4798      	blx	r3
            pszFmt++;
    1988:	3502      	adds	r5, #2
    198a:	9518      	str	r5, [sp, #96]	; 0x60
            cVal = (uint8_t)pArg[index++];
    198c:	0034      	movs	r4, r6
            continue;
    198e:	e7a3      	b.n	18d8 <rprintf+0x34>
            xVal = pArg[index++];
    1990:	1c67      	adds	r7, r4, #1
    1992:	00a4      	lsls	r4, r4, #2
    1994:	ab18      	add	r3, sp, #96	; 0x60
    1996:	469c      	mov	ip, r3
    1998:	4464      	add	r4, ip
    199a:	6823      	ldr	r3, [r4, #0]
    199c:	aa02      	add	r2, sp, #8
            i = 0;
    199e:	2100      	movs	r1, #0
                buffer[i++] = xVal % 16;
    19a0:	260f      	movs	r6, #15
    19a2:	e000      	b.n	19a6 <rprintf+0x102>
    19a4:	0021      	movs	r1, r4
    19a6:	1c4c      	adds	r4, r1, #1
    19a8:	0030      	movs	r0, r6
    19aa:	4018      	ands	r0, r3
    19ac:	c201      	stmia	r2!, {r0}
                xVal /= 16;
    19ae:	091b      	lsrs	r3, r3, #4
            }while(xVal);
    19b0:	d1f8      	bne.n	19a4 <rprintf+0x100>
            if(i%2!=0)
    19b2:	07e3      	lsls	r3, r4, #31
    19b4:	d504      	bpl.n	19c0 <rprintf+0x11c>
                buffer[i++]=0;
    19b6:	00a4      	lsls	r4, r4, #2
    19b8:	2300      	movs	r3, #0
    19ba:	aa02      	add	r2, sp, #8
    19bc:	50a3      	str	r3, [r4, r2]
    19be:	1c8c      	adds	r4, r1, #2
            if(i<2)
    19c0:	2c01      	cmp	r4, #1
    19c2:	d914      	bls.n	19ee <rprintf+0x14a>
            while(i > 0)
    19c4:	2c00      	cmp	r4, #0
    19c6:	d00e      	beq.n	19e6 <rprintf+0x142>
    19c8:	4b15      	ldr	r3, [pc, #84]	; (1a20 <rprintf+0x17c>)
    19ca:	18e6      	adds	r6, r4, r3
    19cc:	00b6      	lsls	r6, r6, #2
    19ce:	ab02      	add	r3, sp, #8
    19d0:	469c      	mov	ip, r3
    19d2:	4466      	add	r6, ip
                i--;
    19d4:	3c01      	subs	r4, #1
                iputc(*change(buffer[i]));
    19d6:	465b      	mov	r3, fp
    19d8:	6832      	ldr	r2, [r6, #0]
    19da:	5c98      	ldrb	r0, [r3, r2]
    19dc:	4b0d      	ldr	r3, [pc, #52]	; (1a14 <rprintf+0x170>)
    19de:	4798      	blx	r3
    19e0:	3e04      	subs	r6, #4
            while(i > 0)
    19e2:	2c00      	cmp	r4, #0
    19e4:	d1f6      	bne.n	19d4 <rprintf+0x130>
            pszFmt++;
    19e6:	3502      	adds	r5, #2
    19e8:	9518      	str	r5, [sp, #96]	; 0x60
            xVal = pArg[index++];
    19ea:	003c      	movs	r4, r7
            continue;
    19ec:	e774      	b.n	18d8 <rprintf+0x34>
                buffer[i++]=0;
    19ee:	00a3      	lsls	r3, r4, #2
    19f0:	2200      	movs	r2, #0
    19f2:	a902      	add	r1, sp, #8
    19f4:	505a      	str	r2, [r3, r1]
    19f6:	3401      	adds	r4, #1
    19f8:	e7e4      	b.n	19c4 <rprintf+0x120>
        {
            break;
        }

    }
    19fa:	b00f      	add	sp, #60	; 0x3c
    19fc:	bc3c      	pop	{r2, r3, r4, r5}
    19fe:	4690      	mov	r8, r2
    1a00:	4699      	mov	r9, r3
    1a02:	46a2      	mov	sl, r4
    1a04:	46ab      	mov	fp, r5
    1a06:	bcf0      	pop	{r4, r5, r6, r7}
    1a08:	bc08      	pop	{r3}
    1a0a:	b004      	add	sp, #16
    1a0c:	4718      	bx	r3
    1a0e:	46c0      	nop			; (mov r8, r8)
    1a10:	00002a30 	.word	0x00002a30
    1a14:	000017f5 	.word	0x000017f5
    1a18:	000025b5 	.word	0x000025b5
    1a1c:	000024a9 	.word	0x000024a9
    1a20:	3fffffff 	.word	0x3fffffff

00001a24 <play_music>:

const uint8_t oct = 1;
const uint8_t tempo = 50;
const uint16_t duration = 100;

void play_music(uint16_t * notes){
    1a24:	b5f0      	push	{r4, r5, r6, r7, lr}
    1a26:	46de      	mov	lr, fp
    1a28:	4657      	mov	r7, sl
    1a2a:	464e      	mov	r6, r9
    1a2c:	4645      	mov	r5, r8
    1a2e:	b5e0      	push	{r5, r6, r7, lr}
    1a30:	b083      	sub	sp, #12
    1a32:	0003      	movs	r3, r0
    1a34:	9000      	str	r0, [sp, #0]
    1a36:	331a      	adds	r3, #26
    1a38:	9301      	str	r3, [sp, #4]
	
		del=(note*oct)/10;
		count=floor((duration*5*tempo)/del);
		for(int x = 0; x < count; x++) {
			port_pin_set_output_level(MOTOR_CONTROLLER_STP_PIN, true);
			delay_us(del);
    1a3a:	4b1c      	ldr	r3, [pc, #112]	; (1aac <play_music+0x88>)
    1a3c:	469b      	mov	fp, r3
    1a3e:	469a      	mov	sl, r3
    1a40:	e019      	b.n	1a76 <play_music+0x52>
    1a42:	2001      	movs	r0, #1
    1a44:	47d8      	blx	fp
    1a46:	4643      	mov	r3, r8
    1a48:	6173      	str	r3, [r6, #20]
			port_pin_set_output_level(MOTOR_CONTROLLER_STP_PIN, false);
			delay_us(del);
    1a4a:	2001      	movs	r0, #1
    1a4c:	47d8      	blx	fp
		for(int x = 0; x < count; x++) {
    1a4e:	3401      	adds	r4, #1
    1a50:	42a7      	cmp	r7, r4
    1a52:	d00a      	beq.n	1a6a <play_music+0x46>
		port_base->OUTSET.reg = pin_mask;
    1a54:	464b      	mov	r3, r9
    1a56:	61b3      	str	r3, [r6, #24]
			delay_us(del);
    1a58:	2d00      	cmp	r5, #0
    1a5a:	d0f2      	beq.n	1a42 <play_music+0x1e>
    1a5c:	0028      	movs	r0, r5
    1a5e:	47d0      	blx	sl
		port_base->OUTCLR.reg = pin_mask;
    1a60:	4643      	mov	r3, r8
    1a62:	6173      	str	r3, [r6, #20]
			delay_us(del);
    1a64:	0028      	movs	r0, r5
    1a66:	47d0      	blx	sl
    1a68:	e7f1      	b.n	1a4e <play_music+0x2a>
		}
		
		notes++;
    1a6a:	9b00      	ldr	r3, [sp, #0]
    1a6c:	3302      	adds	r3, #2
    1a6e:	9300      	str	r3, [sp, #0]
	for(uint16_t i = 0; i < 13; i++){
    1a70:	9a01      	ldr	r2, [sp, #4]
    1a72:	429a      	cmp	r2, r3
    1a74:	d012      	beq.n	1a9c <play_music+0x78>
		del=(note*oct)/10;
    1a76:	9b00      	ldr	r3, [sp, #0]
    1a78:	8818      	ldrh	r0, [r3, #0]
    1a7a:	210a      	movs	r1, #10
    1a7c:	4b0c      	ldr	r3, [pc, #48]	; (1ab0 <play_music+0x8c>)
    1a7e:	4798      	blx	r3
    1a80:	0005      	movs	r5, r0
		count=floor((duration*5*tempo)/del);
    1a82:	0001      	movs	r1, r0
    1a84:	480b      	ldr	r0, [pc, #44]	; (1ab4 <play_music+0x90>)
    1a86:	4b0a      	ldr	r3, [pc, #40]	; (1ab0 <play_music+0x8c>)
    1a88:	4798      	blx	r3
    1a8a:	1e07      	subs	r7, r0, #0
		for(int x = 0; x < count; x++) {
    1a8c:	dded      	ble.n	1a6a <play_music+0x46>
    1a8e:	2400      	movs	r4, #0
		port_base->OUTSET.reg = pin_mask;
    1a90:	4e09      	ldr	r6, [pc, #36]	; (1ab8 <play_music+0x94>)
    1a92:	2380      	movs	r3, #128	; 0x80
    1a94:	039b      	lsls	r3, r3, #14
    1a96:	4698      	mov	r8, r3
    1a98:	4699      	mov	r9, r3
    1a9a:	e7db      	b.n	1a54 <play_music+0x30>
	}
}
    1a9c:	b003      	add	sp, #12
    1a9e:	bc3c      	pop	{r2, r3, r4, r5}
    1aa0:	4690      	mov	r8, r2
    1aa2:	4699      	mov	r9, r3
    1aa4:	46a2      	mov	sl, r4
    1aa6:	46ab      	mov	fp, r5
    1aa8:	bdf0      	pop	{r4, r5, r6, r7, pc}
    1aaa:	46c0      	nop			; (mov r8, r8)
    1aac:	00000145 	.word	0x00000145
    1ab0:	000025bd 	.word	0x000025bd
    1ab4:	000061a8 	.word	0x000061a8
    1ab8:	41004400 	.word	0x41004400

00001abc <cpu_irq_enter_critical>:
volatile bool g_interrupt_enabled = true;
#endif

void cpu_irq_enter_critical(void)
{
	if (cpu_irq_critical_section_counter == 0) {
    1abc:	4b0c      	ldr	r3, [pc, #48]	; (1af0 <cpu_irq_enter_critical+0x34>)
    1abe:	681b      	ldr	r3, [r3, #0]
    1ac0:	2b00      	cmp	r3, #0
    1ac2:	d106      	bne.n	1ad2 <cpu_irq_enter_critical+0x16>
 */
__STATIC_FORCEINLINE uint32_t __get_PRIMASK(void)
{
  uint32_t result;

  __ASM volatile ("MRS %0, primask" : "=r" (result) :: "memory");
    1ac4:	f3ef 8310 	mrs	r3, PRIMASK
		if (cpu_irq_is_enabled()) {
    1ac8:	2b00      	cmp	r3, #0
    1aca:	d007      	beq.n	1adc <cpu_irq_enter_critical+0x20>
			cpu_irq_disable();
			cpu_irq_prev_interrupt_state = true;
		} else {
			/* Make sure the to save the prev state as false */
			cpu_irq_prev_interrupt_state = false;
    1acc:	2200      	movs	r2, #0
    1ace:	4b09      	ldr	r3, [pc, #36]	; (1af4 <cpu_irq_enter_critical+0x38>)
    1ad0:	701a      	strb	r2, [r3, #0]
		}

	}

	cpu_irq_critical_section_counter++;
    1ad2:	4a07      	ldr	r2, [pc, #28]	; (1af0 <cpu_irq_enter_critical+0x34>)
    1ad4:	6813      	ldr	r3, [r2, #0]
    1ad6:	3301      	adds	r3, #1
    1ad8:	6013      	str	r3, [r2, #0]
}
    1ada:	4770      	bx	lr
  __ASM volatile ("cpsid i" : : : "memory");
    1adc:	b672      	cpsid	i
  \details Ensures the apparent order of the explicit memory operations before
           and after the instruction, without ensuring their completion.
 */
__STATIC_FORCEINLINE void __DMB(void)
{
  __ASM volatile ("dmb 0xF":::"memory");
    1ade:	f3bf 8f5f 	dmb	sy
			cpu_irq_disable();
    1ae2:	2200      	movs	r2, #0
    1ae4:	4b04      	ldr	r3, [pc, #16]	; (1af8 <cpu_irq_enter_critical+0x3c>)
    1ae6:	701a      	strb	r2, [r3, #0]
			cpu_irq_prev_interrupt_state = true;
    1ae8:	3201      	adds	r2, #1
    1aea:	4b02      	ldr	r3, [pc, #8]	; (1af4 <cpu_irq_enter_critical+0x38>)
    1aec:	701a      	strb	r2, [r3, #0]
    1aee:	e7f0      	b.n	1ad2 <cpu_irq_enter_critical+0x16>
    1af0:	20000090 	.word	0x20000090
    1af4:	20000094 	.word	0x20000094
    1af8:	20000008 	.word	0x20000008

00001afc <cpu_irq_leave_critical>:
void cpu_irq_leave_critical(void)
{
	/* Check if the user is trying to leave a critical section when not in a critical section */
	Assert(cpu_irq_critical_section_counter > 0);

	cpu_irq_critical_section_counter--;
    1afc:	4b08      	ldr	r3, [pc, #32]	; (1b20 <cpu_irq_leave_critical+0x24>)
    1afe:	681a      	ldr	r2, [r3, #0]
    1b00:	3a01      	subs	r2, #1
    1b02:	601a      	str	r2, [r3, #0]

	/* Only enable global interrupts when the counter reaches 0 and the state of the global interrupt flag
	   was enabled when entering critical state */
	if ((cpu_irq_critical_section_counter == 0) && (cpu_irq_prev_interrupt_state)) {
    1b04:	681b      	ldr	r3, [r3, #0]
    1b06:	2b00      	cmp	r3, #0
    1b08:	d109      	bne.n	1b1e <cpu_irq_leave_critical+0x22>
    1b0a:	4b06      	ldr	r3, [pc, #24]	; (1b24 <cpu_irq_leave_critical+0x28>)
    1b0c:	781b      	ldrb	r3, [r3, #0]
    1b0e:	2b00      	cmp	r3, #0
    1b10:	d005      	beq.n	1b1e <cpu_irq_leave_critical+0x22>
		cpu_irq_enable();
    1b12:	2201      	movs	r2, #1
    1b14:	4b04      	ldr	r3, [pc, #16]	; (1b28 <cpu_irq_leave_critical+0x2c>)
    1b16:	701a      	strb	r2, [r3, #0]
    1b18:	f3bf 8f5f 	dmb	sy
  __ASM volatile ("cpsie i" : : : "memory");
    1b1c:	b662      	cpsie	i
	}
}
    1b1e:	4770      	bx	lr
    1b20:	20000090 	.word	0x20000090
    1b24:	20000094 	.word	0x20000094
    1b28:	20000008 	.word	0x20000008

00001b2c <system_board_init>:
void board_init(void);
#  pragma weak board_init=system_board_init
#endif

void system_board_init(void)
{
    1b2c:	b5f0      	push	{r4, r5, r6, r7, lr}
    1b2e:	b083      	sub	sp, #12
	config->input_pull = PORT_PIN_PULL_UP;
    1b30:	ac01      	add	r4, sp, #4
    1b32:	2501      	movs	r5, #1
    1b34:	7065      	strb	r5, [r4, #1]
	config->powersave  = false;
    1b36:	2700      	movs	r7, #0
    1b38:	70a7      	strb	r7, [r4, #2]
	struct port_config pin_conf;
	port_get_config_defaults(&pin_conf);

	/* Configure LEDs as outputs, turn them off */
	pin_conf.direction  = PORT_PIN_DIR_OUTPUT;
    1b3a:	7025      	strb	r5, [r4, #0]
	port_pin_set_config(LED_0_PIN, &pin_conf);
    1b3c:	0021      	movs	r1, r4
    1b3e:	200e      	movs	r0, #14
    1b40:	4e06      	ldr	r6, [pc, #24]	; (1b5c <system_board_init+0x30>)
    1b42:	47b0      	blx	r6
		port_base->OUTSET.reg = pin_mask;
    1b44:	2280      	movs	r2, #128	; 0x80
    1b46:	01d2      	lsls	r2, r2, #7
    1b48:	4b05      	ldr	r3, [pc, #20]	; (1b60 <system_board_init+0x34>)
    1b4a:	619a      	str	r2, [r3, #24]
	port_pin_set_output_level(LED_0_PIN, LED_0_INACTIVE);

	/* Set buttons as inputs */
	pin_conf.direction  = PORT_PIN_DIR_INPUT;
    1b4c:	7027      	strb	r7, [r4, #0]
	pin_conf.input_pull = PORT_PIN_PULL_UP;
    1b4e:	7065      	strb	r5, [r4, #1]
	port_pin_set_config(BUTTON_0_PIN, &pin_conf);
    1b50:	0021      	movs	r1, r4
    1b52:	200f      	movs	r0, #15
    1b54:	47b0      	blx	r6

	pin_conf.direction  = PORT_PIN_DIR_INPUT;
	port_pin_set_config(AT86RFX_SPI_MISO, &pin_conf);
	
#endif
}
    1b56:	b003      	add	sp, #12
    1b58:	bdf0      	pop	{r4, r5, r6, r7, pc}
    1b5a:	46c0      	nop			; (mov r8, r8)
    1b5c:	00001b65 	.word	0x00001b65
    1b60:	41004400 	.word	0x41004400

00001b64 <port_pin_set_config>:
 *  \param[in] config    Configuration settings for the pin
 */
void port_pin_set_config(
		const uint8_t gpio_pin,
		const struct port_config *const config)
{
    1b64:	b500      	push	{lr}
    1b66:	b083      	sub	sp, #12
	config->mux_position = SYSTEM_PINMUX_GPIO;
    1b68:	ab01      	add	r3, sp, #4
    1b6a:	2280      	movs	r2, #128	; 0x80
    1b6c:	701a      	strb	r2, [r3, #0]

	struct system_pinmux_config pinmux_config;
	system_pinmux_get_config_defaults(&pinmux_config);

	pinmux_config.mux_position = SYSTEM_PINMUX_GPIO;
	pinmux_config.direction    = (enum system_pinmux_pin_dir)config->direction;
    1b6e:	780a      	ldrb	r2, [r1, #0]
    1b70:	705a      	strb	r2, [r3, #1]
	pinmux_config.input_pull   = (enum system_pinmux_pin_pull)config->input_pull;
    1b72:	784a      	ldrb	r2, [r1, #1]
    1b74:	709a      	strb	r2, [r3, #2]
	pinmux_config.powersave    = config->powersave;
    1b76:	788a      	ldrb	r2, [r1, #2]
    1b78:	70da      	strb	r2, [r3, #3]

	system_pinmux_pin_set_config(gpio_pin, &pinmux_config);
    1b7a:	0019      	movs	r1, r3
    1b7c:	4b01      	ldr	r3, [pc, #4]	; (1b84 <port_pin_set_config+0x20>)
    1b7e:	4798      	blx	r3
}
    1b80:	b003      	add	sp, #12
    1b82:	bd00      	pop	{pc}
    1b84:	00002099 	.word	0x00002099

00001b88 <system_clock_source_get_hz>:
 *
 * \returns Frequency of the given clock source, in Hz.
 */
uint32_t system_clock_source_get_hz(
		const enum system_clock_source clock_source)
{
    1b88:	b510      	push	{r4, lr}
	switch (clock_source) {
    1b8a:	2807      	cmp	r0, #7
    1b8c:	d803      	bhi.n	1b96 <system_clock_source_get_hz+0xe>
    1b8e:	0080      	lsls	r0, r0, #2
    1b90:	4b16      	ldr	r3, [pc, #88]	; (1bec <system_clock_source_get_hz+0x64>)
    1b92:	581b      	ldr	r3, [r3, r0]
    1b94:	469f      	mov	pc, r3
		}

		return 48000000UL;

	default:
		return 0;
    1b96:	2000      	movs	r0, #0
    1b98:	e027      	b.n	1bea <system_clock_source_get_hz+0x62>
		return _system_clock_inst.xosc.frequency;
    1b9a:	4b15      	ldr	r3, [pc, #84]	; (1bf0 <system_clock_source_get_hz+0x68>)
    1b9c:	68d8      	ldr	r0, [r3, #12]
    1b9e:	e024      	b.n	1bea <system_clock_source_get_hz+0x62>
		return 8000000UL >> SYSCTRL->OSC8M.bit.PRESC;
    1ba0:	4b14      	ldr	r3, [pc, #80]	; (1bf4 <system_clock_source_get_hz+0x6c>)
    1ba2:	6a1b      	ldr	r3, [r3, #32]
    1ba4:	059b      	lsls	r3, r3, #22
    1ba6:	0f9b      	lsrs	r3, r3, #30
    1ba8:	4813      	ldr	r0, [pc, #76]	; (1bf8 <system_clock_source_get_hz+0x70>)
    1baa:	40d8      	lsrs	r0, r3
    1bac:	e01d      	b.n	1bea <system_clock_source_get_hz+0x62>
		return _system_clock_inst.xosc32k.frequency;
    1bae:	4b10      	ldr	r3, [pc, #64]	; (1bf0 <system_clock_source_get_hz+0x68>)
    1bb0:	6918      	ldr	r0, [r3, #16]
    1bb2:	e01a      	b.n	1bea <system_clock_source_get_hz+0x62>
		if (!(_system_clock_inst.dfll.control & SYSCTRL_DFLLCTRL_ENABLE))
    1bb4:	4b0e      	ldr	r3, [pc, #56]	; (1bf0 <system_clock_source_get_hz+0x68>)
    1bb6:	681b      	ldr	r3, [r3, #0]
			return 0;
    1bb8:	2000      	movs	r0, #0
		if (!(_system_clock_inst.dfll.control & SYSCTRL_DFLLCTRL_ENABLE))
    1bba:	079b      	lsls	r3, r3, #30
    1bbc:	d515      	bpl.n	1bea <system_clock_source_get_hz+0x62>
	while (!(SYSCTRL->PCLKSR.reg & SYSCTRL_PCLKSR_DFLLRDY)) {
    1bbe:	490d      	ldr	r1, [pc, #52]	; (1bf4 <system_clock_source_get_hz+0x6c>)
    1bc0:	2210      	movs	r2, #16
    1bc2:	68cb      	ldr	r3, [r1, #12]
    1bc4:	421a      	tst	r2, r3
    1bc6:	d0fc      	beq.n	1bc2 <system_clock_source_get_hz+0x3a>
		if (_system_clock_inst.dfll.control & SYSCTRL_DFLLCTRL_MODE) {
    1bc8:	4b09      	ldr	r3, [pc, #36]	; (1bf0 <system_clock_source_get_hz+0x68>)
    1bca:	681b      	ldr	r3, [r3, #0]
    1bcc:	075b      	lsls	r3, r3, #29
    1bce:	d401      	bmi.n	1bd4 <system_clock_source_get_hz+0x4c>
		return 48000000UL;
    1bd0:	480a      	ldr	r0, [pc, #40]	; (1bfc <system_clock_source_get_hz+0x74>)
    1bd2:	e00a      	b.n	1bea <system_clock_source_get_hz+0x62>
			return system_gclk_chan_get_hz(SYSCTRL_GCLK_ID_DFLL48) *
    1bd4:	2000      	movs	r0, #0
    1bd6:	4b0a      	ldr	r3, [pc, #40]	; (1c00 <system_clock_source_get_hz+0x78>)
    1bd8:	4798      	blx	r3
					(_system_clock_inst.dfll.mul & 0xffff);
    1bda:	4b05      	ldr	r3, [pc, #20]	; (1bf0 <system_clock_source_get_hz+0x68>)
    1bdc:	689b      	ldr	r3, [r3, #8]
    1bde:	041b      	lsls	r3, r3, #16
    1be0:	0c1b      	lsrs	r3, r3, #16
			return system_gclk_chan_get_hz(SYSCTRL_GCLK_ID_DFLL48) *
    1be2:	4358      	muls	r0, r3
    1be4:	e001      	b.n	1bea <system_clock_source_get_hz+0x62>
		return 32768UL;
    1be6:	2080      	movs	r0, #128	; 0x80
    1be8:	0200      	lsls	r0, r0, #8
	}
}
    1bea:	bd10      	pop	{r4, pc}
    1bec:	00002a44 	.word	0x00002a44
    1bf0:	20000098 	.word	0x20000098
    1bf4:	40000800 	.word	0x40000800
    1bf8:	007a1200 	.word	0x007a1200
    1bfc:	02dc6c00 	.word	0x02dc6c00
    1c00:	00001fbd 	.word	0x00001fbd

00001c04 <system_clock_source_osc8m_set_config>:
 *
 * \param[in] config  OSC8M configuration structure containing the new config
 */
void system_clock_source_osc8m_set_config(
		struct system_clock_source_osc8m_config *const config)
{
    1c04:	b570      	push	{r4, r5, r6, lr}
	SYSCTRL_OSC8M_Type temp = SYSCTRL->OSC8M;
    1c06:	490c      	ldr	r1, [pc, #48]	; (1c38 <system_clock_source_osc8m_set_config+0x34>)
    1c08:	6a0b      	ldr	r3, [r1, #32]

	/* Use temporary struct to reduce register access */
	temp.bit.PRESC    = config->prescaler;
    1c0a:	7804      	ldrb	r4, [r0, #0]
	temp.bit.ONDEMAND = config->on_demand;
    1c0c:	7885      	ldrb	r5, [r0, #2]
	temp.bit.RUNSTDBY = config->run_in_standby;

	SYSCTRL->OSC8M = temp;
    1c0e:	7840      	ldrb	r0, [r0, #1]
    1c10:	2201      	movs	r2, #1
    1c12:	4010      	ands	r0, r2
    1c14:	0180      	lsls	r0, r0, #6
    1c16:	2640      	movs	r6, #64	; 0x40
    1c18:	43b3      	bics	r3, r6
    1c1a:	4303      	orrs	r3, r0
    1c1c:	402a      	ands	r2, r5
    1c1e:	01d2      	lsls	r2, r2, #7
    1c20:	2080      	movs	r0, #128	; 0x80
    1c22:	4383      	bics	r3, r0
    1c24:	4313      	orrs	r3, r2
    1c26:	2203      	movs	r2, #3
    1c28:	4022      	ands	r2, r4
    1c2a:	0212      	lsls	r2, r2, #8
    1c2c:	4803      	ldr	r0, [pc, #12]	; (1c3c <system_clock_source_osc8m_set_config+0x38>)
    1c2e:	4003      	ands	r3, r0
    1c30:	4313      	orrs	r3, r2
    1c32:	620b      	str	r3, [r1, #32]
}
    1c34:	bd70      	pop	{r4, r5, r6, pc}
    1c36:	46c0      	nop			; (mov r8, r8)
    1c38:	40000800 	.word	0x40000800
    1c3c:	fffffcff 	.word	0xfffffcff

00001c40 <system_clock_source_enable>:
 *                                 device
 */
enum status_code system_clock_source_enable(
		const enum system_clock_source clock_source)
{
	switch (clock_source) {
    1c40:	2807      	cmp	r0, #7
    1c42:	d803      	bhi.n	1c4c <system_clock_source_enable+0xc>
    1c44:	0080      	lsls	r0, r0, #2
    1c46:	4b1e      	ldr	r3, [pc, #120]	; (1cc0 <system_clock_source_enable+0x80>)
    1c48:	581b      	ldr	r3, [r3, r0]
    1c4a:	469f      	mov	pc, r3
		/* Always enabled */
		return STATUS_OK;

	default:
		Assert(false);
		return STATUS_ERR_INVALID_ARG;
    1c4c:	2017      	movs	r0, #23
    1c4e:	e036      	b.n	1cbe <system_clock_source_enable+0x7e>
		SYSCTRL->OSC8M.reg |= SYSCTRL_OSC8M_ENABLE;
    1c50:	4a1c      	ldr	r2, [pc, #112]	; (1cc4 <system_clock_source_enable+0x84>)
    1c52:	6a13      	ldr	r3, [r2, #32]
    1c54:	2102      	movs	r1, #2
    1c56:	430b      	orrs	r3, r1
    1c58:	6213      	str	r3, [r2, #32]
		return STATUS_OK;
    1c5a:	2000      	movs	r0, #0
    1c5c:	e02f      	b.n	1cbe <system_clock_source_enable+0x7e>
		SYSCTRL->OSC32K.reg |= SYSCTRL_OSC32K_ENABLE;
    1c5e:	4a19      	ldr	r2, [pc, #100]	; (1cc4 <system_clock_source_enable+0x84>)
    1c60:	6993      	ldr	r3, [r2, #24]
    1c62:	2102      	movs	r1, #2
    1c64:	430b      	orrs	r3, r1
    1c66:	6193      	str	r3, [r2, #24]
	}

	return STATUS_OK;
    1c68:	2000      	movs	r0, #0
		break;
    1c6a:	e028      	b.n	1cbe <system_clock_source_enable+0x7e>
		SYSCTRL->XOSC.reg |= SYSCTRL_XOSC_ENABLE;
    1c6c:	4a15      	ldr	r2, [pc, #84]	; (1cc4 <system_clock_source_enable+0x84>)
    1c6e:	8a13      	ldrh	r3, [r2, #16]
    1c70:	2102      	movs	r1, #2
    1c72:	430b      	orrs	r3, r1
    1c74:	8213      	strh	r3, [r2, #16]
	return STATUS_OK;
    1c76:	2000      	movs	r0, #0
		break;
    1c78:	e021      	b.n	1cbe <system_clock_source_enable+0x7e>
		SYSCTRL->XOSC32K.reg |= SYSCTRL_XOSC32K_ENABLE;
    1c7a:	4a12      	ldr	r2, [pc, #72]	; (1cc4 <system_clock_source_enable+0x84>)
    1c7c:	8a93      	ldrh	r3, [r2, #20]
    1c7e:	2102      	movs	r1, #2
    1c80:	430b      	orrs	r3, r1
    1c82:	8293      	strh	r3, [r2, #20]
	return STATUS_OK;
    1c84:	2000      	movs	r0, #0
		break;
    1c86:	e01a      	b.n	1cbe <system_clock_source_enable+0x7e>
		_system_clock_inst.dfll.control |= SYSCTRL_DFLLCTRL_ENABLE;
    1c88:	4b0f      	ldr	r3, [pc, #60]	; (1cc8 <system_clock_source_enable+0x88>)
    1c8a:	681a      	ldr	r2, [r3, #0]
    1c8c:	2102      	movs	r1, #2
    1c8e:	430a      	orrs	r2, r1
    1c90:	601a      	str	r2, [r3, #0]
	SYSCTRL->DFLLCTRL.reg = _system_clock_inst.dfll.control & ~SYSCTRL_DFLLCTRL_ONDEMAND;
    1c92:	681b      	ldr	r3, [r3, #0]
    1c94:	4a0d      	ldr	r2, [pc, #52]	; (1ccc <system_clock_source_enable+0x8c>)
    1c96:	4013      	ands	r3, r2
    1c98:	4a0a      	ldr	r2, [pc, #40]	; (1cc4 <system_clock_source_enable+0x84>)
    1c9a:	8493      	strh	r3, [r2, #36]	; 0x24
	while (!(SYSCTRL->PCLKSR.reg & SYSCTRL_PCLKSR_DFLLRDY)) {
    1c9c:	0011      	movs	r1, r2
    1c9e:	2210      	movs	r2, #16
    1ca0:	68cb      	ldr	r3, [r1, #12]
    1ca2:	421a      	tst	r2, r3
    1ca4:	d0fc      	beq.n	1ca0 <system_clock_source_enable+0x60>
	SYSCTRL->DFLLMUL.reg = _system_clock_inst.dfll.mul;
    1ca6:	4a08      	ldr	r2, [pc, #32]	; (1cc8 <system_clock_source_enable+0x88>)
    1ca8:	6891      	ldr	r1, [r2, #8]
    1caa:	4b06      	ldr	r3, [pc, #24]	; (1cc4 <system_clock_source_enable+0x84>)
    1cac:	62d9      	str	r1, [r3, #44]	; 0x2c
	SYSCTRL->DFLLVAL.reg = _system_clock_inst.dfll.val;
    1cae:	6851      	ldr	r1, [r2, #4]
    1cb0:	6299      	str	r1, [r3, #40]	; 0x28
	SYSCTRL->DFLLCTRL.reg = _system_clock_inst.dfll.control;
    1cb2:	6812      	ldr	r2, [r2, #0]
    1cb4:	b292      	uxth	r2, r2
    1cb6:	849a      	strh	r2, [r3, #36]	; 0x24
	return STATUS_OK;
    1cb8:	2000      	movs	r0, #0
    1cba:	e000      	b.n	1cbe <system_clock_source_enable+0x7e>
		return STATUS_OK;
    1cbc:	2000      	movs	r0, #0
}
    1cbe:	4770      	bx	lr
    1cc0:	00002a64 	.word	0x00002a64
    1cc4:	40000800 	.word	0x40000800
    1cc8:	20000098 	.word	0x20000098
    1ccc:	0000ff7f 	.word	0x0000ff7f

00001cd0 <system_clock_init>:
 * \note OSC8M is always enabled and if user selects other clocks for GCLK generators,
 * the OSC8M default enable can be disabled after system_clock_init. Make sure the
 * clock switch successfully before disabling OSC8M.
 */
void system_clock_init(void)
{
    1cd0:	b530      	push	{r4, r5, lr}
    1cd2:	b085      	sub	sp, #20
	/* Various bits in the INTFLAG register can be set to one at startup.
	   This will ensure that these bits are cleared */
	SYSCTRL->INTFLAG.reg = SYSCTRL_INTFLAG_BOD33RDY | SYSCTRL_INTFLAG_BOD33DET |
    1cd4:	22c2      	movs	r2, #194	; 0xc2
    1cd6:	00d2      	lsls	r2, r2, #3
    1cd8:	4b1a      	ldr	r3, [pc, #104]	; (1d44 <system_clock_init+0x74>)
    1cda:	609a      	str	r2, [r3, #8]
static inline void system_flash_set_waitstates(uint8_t wait_states)
{
	Assert(NVMCTRL_CTRLB_RWS((uint32_t)wait_states) ==
			((uint32_t)wait_states << NVMCTRL_CTRLB_RWS_Pos));

	NVMCTRL->CTRLB.bit.RWS = wait_states;
    1cdc:	4a1a      	ldr	r2, [pc, #104]	; (1d48 <system_clock_init+0x78>)
    1cde:	6853      	ldr	r3, [r2, #4]
    1ce0:	211e      	movs	r1, #30
    1ce2:	438b      	bics	r3, r1
    1ce4:	6053      	str	r3, [r2, #4]
	gclk_conf.source_generator = GCLK_GENERATOR_1;
    1ce6:	2301      	movs	r3, #1
    1ce8:	466a      	mov	r2, sp
    1cea:	7013      	strb	r3, [r2, #0]
	for (gclk_id = 0; gclk_id < GCLK_NUM; gclk_id++) {
    1cec:	2400      	movs	r4, #0
		system_gclk_chan_set_config(gclk_id, &gclk_conf);
    1cee:	4d17      	ldr	r5, [pc, #92]	; (1d4c <system_clock_init+0x7c>)
    1cf0:	b2e0      	uxtb	r0, r4
    1cf2:	4669      	mov	r1, sp
    1cf4:	47a8      	blx	r5
	for (gclk_id = 0; gclk_id < GCLK_NUM; gclk_id++) {
    1cf6:	3401      	adds	r4, #1
    1cf8:	2c1c      	cmp	r4, #28
    1cfa:	d1f9      	bne.n	1cf0 <system_clock_init+0x20>
	config->run_in_standby  = false;
    1cfc:	a803      	add	r0, sp, #12
    1cfe:	2400      	movs	r4, #0
    1d00:	7044      	strb	r4, [r0, #1]
	config->on_demand       = true;
    1d02:	2501      	movs	r5, #1
    1d04:	7085      	strb	r5, [r0, #2]

	/* OSC8M */
	struct system_clock_source_osc8m_config osc8m_conf;
	system_clock_source_osc8m_get_config_defaults(&osc8m_conf);

	osc8m_conf.prescaler       = CONF_CLOCK_OSC8M_PRESCALER;
    1d06:	7004      	strb	r4, [r0, #0]
	osc8m_conf.on_demand       = CONF_CLOCK_OSC8M_ON_DEMAND;
	osc8m_conf.run_in_standby  = CONF_CLOCK_OSC8M_RUN_IN_STANDBY;

	system_clock_source_osc8m_set_config(&osc8m_conf);
    1d08:	4b11      	ldr	r3, [pc, #68]	; (1d50 <system_clock_init+0x80>)
    1d0a:	4798      	blx	r3
	system_clock_source_enable(SYSTEM_CLOCK_SOURCE_OSC8M);
    1d0c:	2006      	movs	r0, #6
    1d0e:	4b11      	ldr	r3, [pc, #68]	; (1d54 <system_clock_init+0x84>)
    1d10:	4798      	blx	r3


	/* GCLK */
#if CONF_CLOCK_CONFIGURE_GCLK == true
	system_gclk_init();
    1d12:	4b11      	ldr	r3, [pc, #68]	; (1d58 <system_clock_init+0x88>)
    1d14:	4798      	blx	r3
	PM->CPUSEL.reg = (uint32_t)divider;
    1d16:	4b11      	ldr	r3, [pc, #68]	; (1d5c <system_clock_init+0x8c>)
    1d18:	721c      	strb	r4, [r3, #8]
			PM->APBASEL.reg = (uint32_t)divider;
    1d1a:	725c      	strb	r4, [r3, #9]
			PM->APBBSEL.reg = (uint32_t)divider;
    1d1c:	729c      	strb	r4, [r3, #10]
			PM->APBCSEL.reg = (uint32_t)divider;
    1d1e:	72dc      	strb	r4, [r3, #11]
{
	/* Sanity check arguments */
	Assert(config);

	/* Default configuration values */
	config->division_factor    = 1;
    1d20:	9501      	str	r5, [sp, #4]
	config->high_when_disabled = false;
    1d22:	466b      	mov	r3, sp
    1d24:	705c      	strb	r4, [r3, #1]
#if SAML21 || SAML22  || SAMR30 || SAMR34 || SAMR35 || (WLR089)
	config->source_clock       = GCLK_SOURCE_OSC16M;
#elif (SAMC20) || (SAMC21)
	config->source_clock       = GCLK_SOURCE_OSC48M;
#else
	config->source_clock       = GCLK_SOURCE_OSC8M;
    1d26:	2306      	movs	r3, #6
    1d28:	466a      	mov	r2, sp
    1d2a:	7013      	strb	r3, [r2, #0]
#endif
	config->run_in_standby     = false;
    1d2c:	7214      	strb	r4, [r2, #8]
	config->output_enable      = false;
    1d2e:	7254      	strb	r4, [r2, #9]
	system_apb_clock_set_divider(SYSTEM_CLOCK_APB_APBC, CONF_CLOCK_APBC_DIVIDER);

	/* GCLK 0 */
#if CONF_CLOCK_CONFIGURE_GCLK == true
	/* Configure the main GCLK last as it might depend on other generators */
	_CONF_CLOCK_GCLK_CONFIG(0, ~);
    1d30:	4669      	mov	r1, sp
    1d32:	2000      	movs	r0, #0
    1d34:	4b0a      	ldr	r3, [pc, #40]	; (1d60 <system_clock_init+0x90>)
    1d36:	4798      	blx	r3
    1d38:	2000      	movs	r0, #0
    1d3a:	4b0a      	ldr	r3, [pc, #40]	; (1d64 <system_clock_init+0x94>)
    1d3c:	4798      	blx	r3
#endif
}
    1d3e:	b005      	add	sp, #20
    1d40:	bd30      	pop	{r4, r5, pc}
    1d42:	46c0      	nop			; (mov r8, r8)
    1d44:	40000800 	.word	0x40000800
    1d48:	41004000 	.word	0x41004000
    1d4c:	00001fa1 	.word	0x00001fa1
    1d50:	00001c05 	.word	0x00001c05
    1d54:	00001c41 	.word	0x00001c41
    1d58:	00001d69 	.word	0x00001d69
    1d5c:	40000400 	.word	0x40000400
    1d60:	00001d8d 	.word	0x00001d8d
    1d64:	00001e45 	.word	0x00001e45

00001d68 <system_gclk_init>:
			PM->APBAMASK.reg |= mask;
    1d68:	4a06      	ldr	r2, [pc, #24]	; (1d84 <system_gclk_init+0x1c>)
    1d6a:	6993      	ldr	r3, [r2, #24]
    1d6c:	2108      	movs	r1, #8
    1d6e:	430b      	orrs	r3, r1
    1d70:	6193      	str	r3, [r2, #24]
{
	/* Turn on the digital interface clock */
	system_apb_clock_set_mask(SYSTEM_CLOCK_APB_APBA, PM_APBAMASK_GCLK);

	/* Software reset the module to ensure it is re-initialized correctly */
	GCLK->CTRL.reg = GCLK_CTRL_SWRST;
    1d72:	2201      	movs	r2, #1
    1d74:	4b04      	ldr	r3, [pc, #16]	; (1d88 <system_gclk_init+0x20>)
    1d76:	701a      	strb	r2, [r3, #0]
	while (GCLK->CTRL.reg & GCLK_CTRL_SWRST) {
    1d78:	0019      	movs	r1, r3
    1d7a:	780b      	ldrb	r3, [r1, #0]
    1d7c:	4213      	tst	r3, r2
    1d7e:	d1fc      	bne.n	1d7a <system_gclk_init+0x12>
		/* Wait for reset to complete */
	}
}
    1d80:	4770      	bx	lr
    1d82:	46c0      	nop			; (mov r8, r8)
    1d84:	40000400 	.word	0x40000400
    1d88:	40000c00 	.word	0x40000c00

00001d8c <system_gclk_gen_set_config>:
 * \param[in] config     Configuration settings for the generator
 */
void system_gclk_gen_set_config(
		const uint8_t generator,
		struct system_gclk_gen_config *const config)
{
    1d8c:	b570      	push	{r4, r5, r6, lr}
    1d8e:	0006      	movs	r6, r0
	/* Sanity check arguments */
	Assert(config);

	/* Cache new register configurations to minimize sync requirements. */
	uint32_t new_genctrl_config = (generator << GCLK_GENCTRL_ID_Pos);
    1d90:	0004      	movs	r4, r0
	uint32_t new_gendiv_config  = (generator << GCLK_GENDIV_ID_Pos);

	/* Select the requested source clock for the generator */
	new_genctrl_config |= config->source_clock << GCLK_GENCTRL_SRC_Pos;
    1d92:	780d      	ldrb	r5, [r1, #0]
    1d94:	022d      	lsls	r5, r5, #8
    1d96:	4305      	orrs	r5, r0

	/* Configure the clock to be either high or low when disabled */
	if (config->high_when_disabled) {
    1d98:	784b      	ldrb	r3, [r1, #1]
    1d9a:	2b00      	cmp	r3, #0
    1d9c:	d002      	beq.n	1da4 <system_gclk_gen_set_config+0x18>
		new_genctrl_config |= GCLK_GENCTRL_OOV;
    1d9e:	2380      	movs	r3, #128	; 0x80
    1da0:	02db      	lsls	r3, r3, #11
    1da2:	431d      	orrs	r5, r3
	}

	/* Configure if the clock output to I/O pin should be enabled. */
	if (config->output_enable) {
    1da4:	7a4b      	ldrb	r3, [r1, #9]
    1da6:	2b00      	cmp	r3, #0
    1da8:	d002      	beq.n	1db0 <system_gclk_gen_set_config+0x24>
		new_genctrl_config |= GCLK_GENCTRL_OE;
    1daa:	2380      	movs	r3, #128	; 0x80
    1dac:	031b      	lsls	r3, r3, #12
    1dae:	431d      	orrs	r5, r3
	}

	/* Set division factor */
	if (config->division_factor > 1) {
    1db0:	6848      	ldr	r0, [r1, #4]
    1db2:	2801      	cmp	r0, #1
    1db4:	d910      	bls.n	1dd8 <system_gclk_gen_set_config+0x4c>
		/* Check if division is a power of two */
		if (((config->division_factor & (config->division_factor - 1)) == 0)) {
    1db6:	1e43      	subs	r3, r0, #1
    1db8:	4218      	tst	r0, r3
    1dba:	d134      	bne.n	1e26 <system_gclk_gen_set_config+0x9a>
			 * register */

			uint32_t div2_count = 0;

			uint32_t mask;
			for (mask = (1UL << 1); mask < config->division_factor;
    1dbc:	2802      	cmp	r0, #2
    1dbe:	d930      	bls.n	1e22 <system_gclk_gen_set_config+0x96>
    1dc0:	2302      	movs	r3, #2
    1dc2:	2200      	movs	r2, #0
						mask <<= 1) {
				div2_count++;
    1dc4:	3201      	adds	r2, #1
						mask <<= 1) {
    1dc6:	005b      	lsls	r3, r3, #1
			for (mask = (1UL << 1); mask < config->division_factor;
    1dc8:	4298      	cmp	r0, r3
    1dca:	d8fb      	bhi.n	1dc4 <system_gclk_gen_set_config+0x38>
			}

			/* Set binary divider power of 2 division factor */
			new_gendiv_config  |= div2_count << GCLK_GENDIV_DIV_Pos;
    1dcc:	0212      	lsls	r2, r2, #8
    1dce:	4332      	orrs	r2, r6
    1dd0:	0014      	movs	r4, r2
			new_genctrl_config |= GCLK_GENCTRL_DIVSEL;
    1dd2:	2380      	movs	r3, #128	; 0x80
    1dd4:	035b      	lsls	r3, r3, #13
    1dd6:	431d      	orrs	r5, r3
		}

	}

	/* Enable or disable the clock in standby mode */
	if (config->run_in_standby) {
    1dd8:	7a0b      	ldrb	r3, [r1, #8]
    1dda:	2b00      	cmp	r3, #0
    1ddc:	d002      	beq.n	1de4 <system_gclk_gen_set_config+0x58>
		new_genctrl_config |= GCLK_GENCTRL_RUNSTDBY;
    1dde:	2380      	movs	r3, #128	; 0x80
    1de0:	039b      	lsls	r3, r3, #14
    1de2:	431d      	orrs	r5, r3
	if (GCLK->STATUS.reg & GCLK_STATUS_SYNCBUSY){
    1de4:	4a13      	ldr	r2, [pc, #76]	; (1e34 <system_gclk_gen_set_config+0xa8>)
    1de6:	7853      	ldrb	r3, [r2, #1]
	}

	while (system_gclk_is_syncing()) {
    1de8:	b25b      	sxtb	r3, r3
    1dea:	2b00      	cmp	r3, #0
    1dec:	dbfb      	blt.n	1de6 <system_gclk_gen_set_config+0x5a>
	cpu_irq_enter_critical();
    1dee:	4b12      	ldr	r3, [pc, #72]	; (1e38 <system_gclk_gen_set_config+0xac>)
    1df0:	4798      	blx	r3
	};

	system_interrupt_enter_critical_section();

	/* Select the correct generator */
	*((uint8_t*)&GCLK->GENDIV.reg) = generator;
    1df2:	4b12      	ldr	r3, [pc, #72]	; (1e3c <system_gclk_gen_set_config+0xb0>)
    1df4:	701e      	strb	r6, [r3, #0]
	if (GCLK->STATUS.reg & GCLK_STATUS_SYNCBUSY){
    1df6:	4a0f      	ldr	r2, [pc, #60]	; (1e34 <system_gclk_gen_set_config+0xa8>)
    1df8:	7853      	ldrb	r3, [r2, #1]

	/* Write the new generator configuration */
	while (system_gclk_is_syncing()) {
    1dfa:	b25b      	sxtb	r3, r3
    1dfc:	2b00      	cmp	r3, #0
    1dfe:	dbfb      	blt.n	1df8 <system_gclk_gen_set_config+0x6c>
		/* Wait for synchronization */
	};
	GCLK->GENDIV.reg  = new_gendiv_config;
    1e00:	4b0c      	ldr	r3, [pc, #48]	; (1e34 <system_gclk_gen_set_config+0xa8>)
    1e02:	609c      	str	r4, [r3, #8]
	if (GCLK->STATUS.reg & GCLK_STATUS_SYNCBUSY){
    1e04:	001a      	movs	r2, r3
    1e06:	7853      	ldrb	r3, [r2, #1]

	while (system_gclk_is_syncing()) {
    1e08:	b25b      	sxtb	r3, r3
    1e0a:	2b00      	cmp	r3, #0
    1e0c:	dbfb      	blt.n	1e06 <system_gclk_gen_set_config+0x7a>
		/* Wait for synchronization */
	};
	GCLK->GENCTRL.reg = new_genctrl_config | (GCLK->GENCTRL.reg & GCLK_GENCTRL_GENEN);
    1e0e:	4a09      	ldr	r2, [pc, #36]	; (1e34 <system_gclk_gen_set_config+0xa8>)
    1e10:	6853      	ldr	r3, [r2, #4]
    1e12:	2180      	movs	r1, #128	; 0x80
    1e14:	0249      	lsls	r1, r1, #9
    1e16:	400b      	ands	r3, r1
    1e18:	431d      	orrs	r5, r3
    1e1a:	6055      	str	r5, [r2, #4]
	cpu_irq_leave_critical();
    1e1c:	4b08      	ldr	r3, [pc, #32]	; (1e40 <system_gclk_gen_set_config+0xb4>)
    1e1e:	4798      	blx	r3

	system_interrupt_leave_critical_section();
}
    1e20:	bd70      	pop	{r4, r5, r6, pc}
			for (mask = (1UL << 1); mask < config->division_factor;
    1e22:	2200      	movs	r2, #0
    1e24:	e7d2      	b.n	1dcc <system_gclk_gen_set_config+0x40>
					(config->division_factor) << GCLK_GENDIV_DIV_Pos;
    1e26:	0204      	lsls	r4, r0, #8
			new_gendiv_config  |=
    1e28:	4334      	orrs	r4, r6
			new_genctrl_config |= GCLK_GENCTRL_IDC;
    1e2a:	2380      	movs	r3, #128	; 0x80
    1e2c:	029b      	lsls	r3, r3, #10
    1e2e:	431d      	orrs	r5, r3
    1e30:	e7d2      	b.n	1dd8 <system_gclk_gen_set_config+0x4c>
    1e32:	46c0      	nop			; (mov r8, r8)
    1e34:	40000c00 	.word	0x40000c00
    1e38:	00001abd 	.word	0x00001abd
    1e3c:	40000c08 	.word	0x40000c08
    1e40:	00001afd 	.word	0x00001afd

00001e44 <system_gclk_gen_enable>:
 *
 * \param[in] generator  Generic Clock Generator index to enable
 */
void system_gclk_gen_enable(
		const uint8_t generator)
{
    1e44:	b510      	push	{r4, lr}
    1e46:	0004      	movs	r4, r0
	if (GCLK->STATUS.reg & GCLK_STATUS_SYNCBUSY){
    1e48:	4a0b      	ldr	r2, [pc, #44]	; (1e78 <system_gclk_gen_enable+0x34>)
    1e4a:	7853      	ldrb	r3, [r2, #1]
	while (system_gclk_is_syncing()) {
    1e4c:	b25b      	sxtb	r3, r3
    1e4e:	2b00      	cmp	r3, #0
    1e50:	dbfb      	blt.n	1e4a <system_gclk_gen_enable+0x6>
	cpu_irq_enter_critical();
    1e52:	4b0a      	ldr	r3, [pc, #40]	; (1e7c <system_gclk_gen_enable+0x38>)
    1e54:	4798      	blx	r3
	};

	system_interrupt_enter_critical_section();

	/* Select the requested generator */
	*((uint8_t*)&GCLK->GENCTRL.reg) = generator;
    1e56:	4b0a      	ldr	r3, [pc, #40]	; (1e80 <system_gclk_gen_enable+0x3c>)
    1e58:	701c      	strb	r4, [r3, #0]
	if (GCLK->STATUS.reg & GCLK_STATUS_SYNCBUSY){
    1e5a:	4a07      	ldr	r2, [pc, #28]	; (1e78 <system_gclk_gen_enable+0x34>)
    1e5c:	7853      	ldrb	r3, [r2, #1]
	while (system_gclk_is_syncing()) {
    1e5e:	b25b      	sxtb	r3, r3
    1e60:	2b00      	cmp	r3, #0
    1e62:	dbfb      	blt.n	1e5c <system_gclk_gen_enable+0x18>
		/* Wait for synchronization */
	};

	/* Enable generator */
	GCLK->GENCTRL.reg |= GCLK_GENCTRL_GENEN;
    1e64:	4a04      	ldr	r2, [pc, #16]	; (1e78 <system_gclk_gen_enable+0x34>)
    1e66:	6851      	ldr	r1, [r2, #4]
    1e68:	2380      	movs	r3, #128	; 0x80
    1e6a:	025b      	lsls	r3, r3, #9
    1e6c:	430b      	orrs	r3, r1
    1e6e:	6053      	str	r3, [r2, #4]
	cpu_irq_leave_critical();
    1e70:	4b04      	ldr	r3, [pc, #16]	; (1e84 <system_gclk_gen_enable+0x40>)
    1e72:	4798      	blx	r3

	system_interrupt_leave_critical_section();
}
    1e74:	bd10      	pop	{r4, pc}
    1e76:	46c0      	nop			; (mov r8, r8)
    1e78:	40000c00 	.word	0x40000c00
    1e7c:	00001abd 	.word	0x00001abd
    1e80:	40000c04 	.word	0x40000c04
    1e84:	00001afd 	.word	0x00001afd

00001e88 <system_gclk_gen_get_hz>:
 *
 * \return The frequency of the generic clock generator, in Hz.
 */
uint32_t system_gclk_gen_get_hz(
		const uint8_t generator)
{
    1e88:	b570      	push	{r4, r5, r6, lr}
    1e8a:	0004      	movs	r4, r0
	if (GCLK->STATUS.reg & GCLK_STATUS_SYNCBUSY){
    1e8c:	4a1a      	ldr	r2, [pc, #104]	; (1ef8 <system_gclk_gen_get_hz+0x70>)
    1e8e:	7853      	ldrb	r3, [r2, #1]
	while (system_gclk_is_syncing()) {
    1e90:	b25b      	sxtb	r3, r3
    1e92:	2b00      	cmp	r3, #0
    1e94:	dbfb      	blt.n	1e8e <system_gclk_gen_get_hz+0x6>
	cpu_irq_enter_critical();
    1e96:	4b19      	ldr	r3, [pc, #100]	; (1efc <system_gclk_gen_get_hz+0x74>)
    1e98:	4798      	blx	r3
	};

	system_interrupt_enter_critical_section();

	/* Select the appropriate generator */
	*((uint8_t*)&GCLK->GENCTRL.reg) = generator;
    1e9a:	4b19      	ldr	r3, [pc, #100]	; (1f00 <system_gclk_gen_get_hz+0x78>)
    1e9c:	701c      	strb	r4, [r3, #0]
	if (GCLK->STATUS.reg & GCLK_STATUS_SYNCBUSY){
    1e9e:	4a16      	ldr	r2, [pc, #88]	; (1ef8 <system_gclk_gen_get_hz+0x70>)
    1ea0:	7853      	ldrb	r3, [r2, #1]
	while (system_gclk_is_syncing()) {
    1ea2:	b25b      	sxtb	r3, r3
    1ea4:	2b00      	cmp	r3, #0
    1ea6:	dbfb      	blt.n	1ea0 <system_gclk_gen_get_hz+0x18>
		/* Wait for synchronization */
	};

	/* Get the frequency of the source connected to the GCLK generator */
	uint32_t gen_input_hz = system_clock_source_get_hz(
			(enum system_clock_source)GCLK->GENCTRL.bit.SRC);
    1ea8:	4e13      	ldr	r6, [pc, #76]	; (1ef8 <system_gclk_gen_get_hz+0x70>)
    1eaa:	6870      	ldr	r0, [r6, #4]
    1eac:	04c0      	lsls	r0, r0, #19
    1eae:	0ec0      	lsrs	r0, r0, #27
	uint32_t gen_input_hz = system_clock_source_get_hz(
    1eb0:	4b14      	ldr	r3, [pc, #80]	; (1f04 <system_gclk_gen_get_hz+0x7c>)
    1eb2:	4798      	blx	r3
    1eb4:	0005      	movs	r5, r0

	*((uint8_t*)&GCLK->GENCTRL.reg) = generator;
    1eb6:	4b12      	ldr	r3, [pc, #72]	; (1f00 <system_gclk_gen_get_hz+0x78>)
    1eb8:	701c      	strb	r4, [r3, #0]

	uint8_t divsel = GCLK->GENCTRL.bit.DIVSEL;
    1eba:	6876      	ldr	r6, [r6, #4]
    1ebc:	02f6      	lsls	r6, r6, #11
    1ebe:	0ff6      	lsrs	r6, r6, #31

	/* Select the appropriate generator division register */
	*((uint8_t*)&GCLK->GENDIV.reg) = generator;
    1ec0:	4b11      	ldr	r3, [pc, #68]	; (1f08 <system_gclk_gen_get_hz+0x80>)
    1ec2:	701c      	strb	r4, [r3, #0]
	if (GCLK->STATUS.reg & GCLK_STATUS_SYNCBUSY){
    1ec4:	4a0c      	ldr	r2, [pc, #48]	; (1ef8 <system_gclk_gen_get_hz+0x70>)
    1ec6:	7853      	ldrb	r3, [r2, #1]
	while (system_gclk_is_syncing()) {
    1ec8:	b25b      	sxtb	r3, r3
    1eca:	2b00      	cmp	r3, #0
    1ecc:	dbfb      	blt.n	1ec6 <system_gclk_gen_get_hz+0x3e>
		/* Wait for synchronization */
	};

	uint32_t divider = GCLK->GENDIV.bit.DIV;
    1ece:	4b0a      	ldr	r3, [pc, #40]	; (1ef8 <system_gclk_gen_get_hz+0x70>)
    1ed0:	689c      	ldr	r4, [r3, #8]
    1ed2:	0224      	lsls	r4, r4, #8
    1ed4:	0c24      	lsrs	r4, r4, #16
	cpu_irq_leave_critical();
    1ed6:	4b0d      	ldr	r3, [pc, #52]	; (1f0c <system_gclk_gen_get_hz+0x84>)
    1ed8:	4798      	blx	r3

	system_interrupt_leave_critical_section();

	/* Check if the generator is using fractional or binary division */
	if (!divsel && divider > 1) {
    1eda:	2e00      	cmp	r6, #0
    1edc:	d107      	bne.n	1eee <system_gclk_gen_get_hz+0x66>
    1ede:	2c01      	cmp	r4, #1
    1ee0:	d907      	bls.n	1ef2 <system_gclk_gen_get_hz+0x6a>
		gen_input_hz /= divider;
    1ee2:	0021      	movs	r1, r4
    1ee4:	0028      	movs	r0, r5
    1ee6:	4b0a      	ldr	r3, [pc, #40]	; (1f10 <system_gclk_gen_get_hz+0x88>)
    1ee8:	4798      	blx	r3
    1eea:	0005      	movs	r5, r0
    1eec:	e001      	b.n	1ef2 <system_gclk_gen_get_hz+0x6a>
	} else if (divsel) {
		gen_input_hz >>= (divider+1);
    1eee:	3401      	adds	r4, #1
    1ef0:	40e5      	lsrs	r5, r4
	}

	return gen_input_hz;
}
    1ef2:	0028      	movs	r0, r5
    1ef4:	bd70      	pop	{r4, r5, r6, pc}
    1ef6:	46c0      	nop			; (mov r8, r8)
    1ef8:	40000c00 	.word	0x40000c00
    1efc:	00001abd 	.word	0x00001abd
    1f00:	40000c04 	.word	0x40000c04
    1f04:	00001b89 	.word	0x00001b89
    1f08:	40000c08 	.word	0x40000c08
    1f0c:	00001afd 	.word	0x00001afd
    1f10:	000024a9 	.word	0x000024a9

00001f14 <system_gclk_chan_enable>:
 *
 * \param[in] channel   Generic Clock channel to enable
 */
void system_gclk_chan_enable(
		const uint8_t channel)
{
    1f14:	b510      	push	{r4, lr}
    1f16:	0004      	movs	r4, r0
	cpu_irq_enter_critical();
    1f18:	4b06      	ldr	r3, [pc, #24]	; (1f34 <system_gclk_chan_enable+0x20>)
    1f1a:	4798      	blx	r3
	system_interrupt_enter_critical_section();

	/* Select the requested generator channel */
	*((uint8_t*)&GCLK->CLKCTRL.reg) = channel;
    1f1c:	4b06      	ldr	r3, [pc, #24]	; (1f38 <system_gclk_chan_enable+0x24>)
    1f1e:	701c      	strb	r4, [r3, #0]

	/* Enable the generic clock */
	GCLK->CLKCTRL.reg |= GCLK_CLKCTRL_CLKEN;
    1f20:	4a06      	ldr	r2, [pc, #24]	; (1f3c <system_gclk_chan_enable+0x28>)
    1f22:	8853      	ldrh	r3, [r2, #2]
    1f24:	2180      	movs	r1, #128	; 0x80
    1f26:	01c9      	lsls	r1, r1, #7
    1f28:	430b      	orrs	r3, r1
    1f2a:	8053      	strh	r3, [r2, #2]
	cpu_irq_leave_critical();
    1f2c:	4b04      	ldr	r3, [pc, #16]	; (1f40 <system_gclk_chan_enable+0x2c>)
    1f2e:	4798      	blx	r3

	system_interrupt_leave_critical_section();
}
    1f30:	bd10      	pop	{r4, pc}
    1f32:	46c0      	nop			; (mov r8, r8)
    1f34:	00001abd 	.word	0x00001abd
    1f38:	40000c02 	.word	0x40000c02
    1f3c:	40000c00 	.word	0x40000c00
    1f40:	00001afd 	.word	0x00001afd

00001f44 <system_gclk_chan_disable>:
 *
 * \param[in] channel  Generic Clock channel to disable
 */
void system_gclk_chan_disable(
		const uint8_t channel)
{
    1f44:	b510      	push	{r4, lr}
    1f46:	0004      	movs	r4, r0
	cpu_irq_enter_critical();
    1f48:	4b0f      	ldr	r3, [pc, #60]	; (1f88 <system_gclk_chan_disable+0x44>)
    1f4a:	4798      	blx	r3
	system_interrupt_enter_critical_section();

	/* Select the requested generator channel */
	*((uint8_t*)&GCLK->CLKCTRL.reg) = channel;
    1f4c:	4b0f      	ldr	r3, [pc, #60]	; (1f8c <system_gclk_chan_disable+0x48>)
    1f4e:	701c      	strb	r4, [r3, #0]

	/* Sanity check WRTLOCK */
	Assert(!GCLK->CLKCTRL.bit.WRTLOCK);

	/* Switch to known-working source so that the channel can be disabled */
	uint32_t prev_gen_id = GCLK->CLKCTRL.bit.GEN;
    1f50:	4a0f      	ldr	r2, [pc, #60]	; (1f90 <system_gclk_chan_disable+0x4c>)
    1f52:	8853      	ldrh	r3, [r2, #2]
    1f54:	051b      	lsls	r3, r3, #20
    1f56:	0f18      	lsrs	r0, r3, #28
	GCLK->CLKCTRL.bit.GEN = 0;
    1f58:	8853      	ldrh	r3, [r2, #2]
    1f5a:	490e      	ldr	r1, [pc, #56]	; (1f94 <system_gclk_chan_disable+0x50>)
    1f5c:	400b      	ands	r3, r1
    1f5e:	8053      	strh	r3, [r2, #2]

	/* Disable the generic clock */
	GCLK->CLKCTRL.reg &= ~GCLK_CLKCTRL_CLKEN;
    1f60:	8853      	ldrh	r3, [r2, #2]
    1f62:	490d      	ldr	r1, [pc, #52]	; (1f98 <system_gclk_chan_disable+0x54>)
    1f64:	400b      	ands	r3, r1
    1f66:	8053      	strh	r3, [r2, #2]
	while (GCLK->CLKCTRL.reg & GCLK_CLKCTRL_CLKEN) {
    1f68:	0011      	movs	r1, r2
    1f6a:	2280      	movs	r2, #128	; 0x80
    1f6c:	01d2      	lsls	r2, r2, #7
    1f6e:	884b      	ldrh	r3, [r1, #2]
    1f70:	4213      	tst	r3, r2
    1f72:	d1fc      	bne.n	1f6e <system_gclk_chan_disable+0x2a>
		/* Wait for clock to become disabled */
	}

	/* Restore previous configured clock generator */
	GCLK->CLKCTRL.bit.GEN = prev_gen_id;
    1f74:	4906      	ldr	r1, [pc, #24]	; (1f90 <system_gclk_chan_disable+0x4c>)
    1f76:	884a      	ldrh	r2, [r1, #2]
    1f78:	0203      	lsls	r3, r0, #8
    1f7a:	4806      	ldr	r0, [pc, #24]	; (1f94 <system_gclk_chan_disable+0x50>)
    1f7c:	4002      	ands	r2, r0
    1f7e:	4313      	orrs	r3, r2
    1f80:	804b      	strh	r3, [r1, #2]
	cpu_irq_leave_critical();
    1f82:	4b06      	ldr	r3, [pc, #24]	; (1f9c <system_gclk_chan_disable+0x58>)
    1f84:	4798      	blx	r3

	system_interrupt_leave_critical_section();
}
    1f86:	bd10      	pop	{r4, pc}
    1f88:	00001abd 	.word	0x00001abd
    1f8c:	40000c02 	.word	0x40000c02
    1f90:	40000c00 	.word	0x40000c00
    1f94:	fffff0ff 	.word	0xfffff0ff
    1f98:	ffffbfff 	.word	0xffffbfff
    1f9c:	00001afd 	.word	0x00001afd

00001fa0 <system_gclk_chan_set_config>:
{
    1fa0:	b510      	push	{r4, lr}
	new_clkctrl_config |= config->source_generator << GCLK_CLKCTRL_GEN_Pos;
    1fa2:	780c      	ldrb	r4, [r1, #0]
    1fa4:	0224      	lsls	r4, r4, #8
    1fa6:	4304      	orrs	r4, r0
	system_gclk_chan_disable(channel);
    1fa8:	4b02      	ldr	r3, [pc, #8]	; (1fb4 <system_gclk_chan_set_config+0x14>)
    1faa:	4798      	blx	r3
	GCLK->CLKCTRL.reg = new_clkctrl_config;
    1fac:	b2a4      	uxth	r4, r4
    1fae:	4b02      	ldr	r3, [pc, #8]	; (1fb8 <system_gclk_chan_set_config+0x18>)
    1fb0:	805c      	strh	r4, [r3, #2]
}
    1fb2:	bd10      	pop	{r4, pc}
    1fb4:	00001f45 	.word	0x00001f45
    1fb8:	40000c00 	.word	0x40000c00

00001fbc <system_gclk_chan_get_hz>:
 *
 * \return The frequency of the generic clock channel, in Hz.
 */
uint32_t system_gclk_chan_get_hz(
		const uint8_t channel)
{
    1fbc:	b510      	push	{r4, lr}
    1fbe:	0004      	movs	r4, r0
	cpu_irq_enter_critical();
    1fc0:	4b06      	ldr	r3, [pc, #24]	; (1fdc <system_gclk_chan_get_hz+0x20>)
    1fc2:	4798      	blx	r3
	uint8_t gen_id;

	system_interrupt_enter_critical_section();

	/* Select the requested generic clock channel */
	*((uint8_t*)&GCLK->CLKCTRL.reg) = channel;
    1fc4:	4b06      	ldr	r3, [pc, #24]	; (1fe0 <system_gclk_chan_get_hz+0x24>)
    1fc6:	701c      	strb	r4, [r3, #0]
	gen_id = GCLK->CLKCTRL.bit.GEN;
    1fc8:	4b06      	ldr	r3, [pc, #24]	; (1fe4 <system_gclk_chan_get_hz+0x28>)
    1fca:	885c      	ldrh	r4, [r3, #2]
    1fcc:	0524      	lsls	r4, r4, #20
    1fce:	0f24      	lsrs	r4, r4, #28
	cpu_irq_leave_critical();
    1fd0:	4b05      	ldr	r3, [pc, #20]	; (1fe8 <system_gclk_chan_get_hz+0x2c>)
    1fd2:	4798      	blx	r3

	system_interrupt_leave_critical_section();

	/* Return the clock speed of the associated GCLK generator */
	return system_gclk_gen_get_hz(gen_id);
    1fd4:	0020      	movs	r0, r4
    1fd6:	4b05      	ldr	r3, [pc, #20]	; (1fec <system_gclk_chan_get_hz+0x30>)
    1fd8:	4798      	blx	r3
}
    1fda:	bd10      	pop	{r4, pc}
    1fdc:	00001abd 	.word	0x00001abd
    1fe0:	40000c02 	.word	0x40000c02
    1fe4:	40000c00 	.word	0x40000c00
    1fe8:	00001afd 	.word	0x00001afd
    1fec:	00001e89 	.word	0x00001e89

00001ff0 <_system_pinmux_config>:
 */
static void _system_pinmux_config(
		PortGroup *const port,
		const uint32_t pin_mask,
		const struct system_pinmux_config *const config)
{
    1ff0:	b530      	push	{r4, r5, lr}

	/* Track the configuration bits into a temporary variable before writing */
	uint32_t pin_cfg = 0;

	/* Enabled powersave mode, don't create configuration */
	if (!config->powersave) {
    1ff2:	78d3      	ldrb	r3, [r2, #3]
    1ff4:	2b00      	cmp	r3, #0
    1ff6:	d135      	bne.n	2064 <STACK_SIZE+0x64>
		/* Enable the pin peripheral MUX flag if non-GPIO selected (pinmux will
		 * be written later) and store the new MUX mask */
		if (config->mux_position != SYSTEM_PINMUX_GPIO) {
    1ff8:	7813      	ldrb	r3, [r2, #0]
    1ffa:	2b80      	cmp	r3, #128	; 0x80
    1ffc:	d029      	beq.n	2052 <STACK_SIZE+0x52>
			pin_cfg |= PORT_WRCONFIG_PMUXEN;
			pin_cfg |= (config->mux_position << PORT_WRCONFIG_PMUX_Pos);
    1ffe:	061b      	lsls	r3, r3, #24
    2000:	2480      	movs	r4, #128	; 0x80
    2002:	0264      	lsls	r4, r4, #9
    2004:	4323      	orrs	r3, r4
		}

		/* Check if the user has requested that the input buffer be enabled */
		if ((config->direction == SYSTEM_PINMUX_PIN_DIR_INPUT) ||
    2006:	7854      	ldrb	r4, [r2, #1]
    2008:	2502      	movs	r5, #2
    200a:	43ac      	bics	r4, r5
    200c:	d106      	bne.n	201c <STACK_SIZE+0x1c>
				(config->direction == SYSTEM_PINMUX_PIN_DIR_OUTPUT_WITH_READBACK)) {
			/* Enable input buffer flag */
			pin_cfg |= PORT_WRCONFIG_INEN;

			/* Enable pull-up/pull-down control flag if requested */
			if (config->input_pull != SYSTEM_PINMUX_PIN_PULL_NONE) {
    200e:	7894      	ldrb	r4, [r2, #2]
    2010:	2c00      	cmp	r4, #0
    2012:	d120      	bne.n	2056 <STACK_SIZE+0x56>
			pin_cfg |= PORT_WRCONFIG_INEN;
    2014:	2480      	movs	r4, #128	; 0x80
    2016:	02a4      	lsls	r4, r4, #10
    2018:	4323      	orrs	r3, r4
				pin_cfg |= PORT_WRCONFIG_PULLEN;
			}

			/* Clear the port DIR bits to disable the output buffer */
			port->DIRCLR.reg = pin_mask;
    201a:	6041      	str	r1, [r0, #4]
		}

		/* Check if the user has requested that the output buffer be enabled */
		if ((config->direction == SYSTEM_PINMUX_PIN_DIR_OUTPUT) ||
    201c:	7854      	ldrb	r4, [r2, #1]
    201e:	3c01      	subs	r4, #1
    2020:	2c01      	cmp	r4, #1
    2022:	d91c      	bls.n	205e <STACK_SIZE+0x5e>
		port->DIRCLR.reg = pin_mask;
	}

	/* The Write Configuration register (WRCONFIG) requires the
	 * pins to to grouped into two 16-bit half-words - split them out here */
	uint32_t lower_pin_mask = (pin_mask & 0xFFFF);
    2024:	040d      	lsls	r5, r1, #16
    2026:	0c2d      	lsrs	r5, r5, #16

	/* Configure the lower 16-bits of the port to the desired configuration,
	 * including the pin peripheral multiplexer just in case it is enabled */
	port->WRCONFIG.reg
		= (lower_pin_mask << PORT_WRCONFIG_PINMASK_Pos) |
			pin_cfg | PORT_WRCONFIG_WRPMUX | PORT_WRCONFIG_WRPINCFG;
    2028:	24a0      	movs	r4, #160	; 0xa0
    202a:	05e4      	lsls	r4, r4, #23
    202c:	432c      	orrs	r4, r5
    202e:	431c      	orrs	r4, r3
		= (lower_pin_mask << PORT_WRCONFIG_PINMASK_Pos) |
    2030:	6284      	str	r4, [r0, #40]	; 0x28
	uint32_t upper_pin_mask = (pin_mask >> 16);
    2032:	0c0d      	lsrs	r5, r1, #16

	/* Configure the upper 16-bits of the port to the desired configuration,
	 * including the pin peripheral multiplexer just in case it is enabled */
	port->WRCONFIG.reg
		= (upper_pin_mask << PORT_WRCONFIG_PINMASK_Pos) |
			pin_cfg | PORT_WRCONFIG_WRPMUX | PORT_WRCONFIG_WRPINCFG |
    2034:	24d0      	movs	r4, #208	; 0xd0
    2036:	0624      	lsls	r4, r4, #24
    2038:	432c      	orrs	r4, r5
    203a:	431c      	orrs	r4, r3
		= (upper_pin_mask << PORT_WRCONFIG_PINMASK_Pos) |
    203c:	6284      	str	r4, [r0, #40]	; 0x28
			PORT_WRCONFIG_HWSEL;

	if(!config->powersave) {
    203e:	78d4      	ldrb	r4, [r2, #3]
    2040:	2c00      	cmp	r4, #0
    2042:	d122      	bne.n	208a <STACK_SIZE+0x8a>
		/* Set the pull-up state once the port pins are configured if one was
		 * requested and it does not violate the valid set of port
		 * configurations */
		if (pin_cfg & PORT_WRCONFIG_PULLEN) {
    2044:	035b      	lsls	r3, r3, #13
    2046:	d51c      	bpl.n	2082 <STACK_SIZE+0x82>
			/* Set the OUT register bits to enable the pull-up if requested,
			 * clear to enable pull-down */
			if (config->input_pull == SYSTEM_PINMUX_PIN_PULL_UP) {
    2048:	7893      	ldrb	r3, [r2, #2]
    204a:	2b01      	cmp	r3, #1
    204c:	d01e      	beq.n	208c <STACK_SIZE+0x8c>
				port->OUTSET.reg = pin_mask;
			} else {
				port->OUTCLR.reg = pin_mask;
    204e:	6141      	str	r1, [r0, #20]
    2050:	e017      	b.n	2082 <STACK_SIZE+0x82>
	uint32_t pin_cfg = 0;
    2052:	2300      	movs	r3, #0
    2054:	e7d7      	b.n	2006 <STACK_SIZE+0x6>
				pin_cfg |= PORT_WRCONFIG_PULLEN;
    2056:	24c0      	movs	r4, #192	; 0xc0
    2058:	02e4      	lsls	r4, r4, #11
    205a:	4323      	orrs	r3, r4
    205c:	e7dd      	b.n	201a <STACK_SIZE+0x1a>
			pin_cfg &= ~PORT_WRCONFIG_PULLEN;
    205e:	4c0d      	ldr	r4, [pc, #52]	; (2094 <STACK_SIZE+0x94>)
    2060:	4023      	ands	r3, r4
    2062:	e7df      	b.n	2024 <STACK_SIZE+0x24>
		port->DIRCLR.reg = pin_mask;
    2064:	6041      	str	r1, [r0, #4]
	uint32_t lower_pin_mask = (pin_mask & 0xFFFF);
    2066:	040c      	lsls	r4, r1, #16
    2068:	0c24      	lsrs	r4, r4, #16
			pin_cfg | PORT_WRCONFIG_WRPMUX | PORT_WRCONFIG_WRPINCFG;
    206a:	23a0      	movs	r3, #160	; 0xa0
    206c:	05db      	lsls	r3, r3, #23
    206e:	4323      	orrs	r3, r4
		= (lower_pin_mask << PORT_WRCONFIG_PINMASK_Pos) |
    2070:	6283      	str	r3, [r0, #40]	; 0x28
	uint32_t upper_pin_mask = (pin_mask >> 16);
    2072:	0c0c      	lsrs	r4, r1, #16
			pin_cfg | PORT_WRCONFIG_WRPMUX | PORT_WRCONFIG_WRPINCFG |
    2074:	23d0      	movs	r3, #208	; 0xd0
    2076:	061b      	lsls	r3, r3, #24
    2078:	4323      	orrs	r3, r4
		= (upper_pin_mask << PORT_WRCONFIG_PINMASK_Pos) |
    207a:	6283      	str	r3, [r0, #40]	; 0x28
	if(!config->powersave) {
    207c:	78d3      	ldrb	r3, [r2, #3]
    207e:	2b00      	cmp	r3, #0
    2080:	d103      	bne.n	208a <STACK_SIZE+0x8a>
			}
		}

		/* Check if the user has requested that the output buffer be enabled */
		if ((config->direction == SYSTEM_PINMUX_PIN_DIR_OUTPUT) ||
    2082:	7853      	ldrb	r3, [r2, #1]
    2084:	3b01      	subs	r3, #1
    2086:	2b01      	cmp	r3, #1
    2088:	d902      	bls.n	2090 <STACK_SIZE+0x90>
				(config->direction == SYSTEM_PINMUX_PIN_DIR_OUTPUT_WITH_READBACK)) {
			/* Set the port DIR bits to enable the output buffer */
			port->DIRSET.reg = pin_mask;
		}
	}
}
    208a:	bd30      	pop	{r4, r5, pc}
				port->OUTSET.reg = pin_mask;
    208c:	6181      	str	r1, [r0, #24]
    208e:	e7f8      	b.n	2082 <STACK_SIZE+0x82>
			port->DIRSET.reg = pin_mask;
    2090:	6081      	str	r1, [r0, #8]
}
    2092:	e7fa      	b.n	208a <STACK_SIZE+0x8a>
    2094:	fffbffff 	.word	0xfffbffff

00002098 <system_pinmux_pin_set_config>:
 * \param[in] config    Configuration settings for the pin
 */
void system_pinmux_pin_set_config(
		const uint8_t gpio_pin,
		const struct system_pinmux_config *const config)
{
    2098:	b510      	push	{r4, lr}
    209a:	000a      	movs	r2, r1
	if (port_index < PORT_INST_NUM) {
    209c:	09c1      	lsrs	r1, r0, #7
		return NULL;
    209e:	2300      	movs	r3, #0
	if (port_index < PORT_INST_NUM) {
    20a0:	2900      	cmp	r1, #0
    20a2:	d104      	bne.n	20ae <system_pinmux_pin_set_config+0x16>
		return &(ports[port_index]->Group[group_index]);
    20a4:	0943      	lsrs	r3, r0, #5
    20a6:	01db      	lsls	r3, r3, #7
    20a8:	4905      	ldr	r1, [pc, #20]	; (20c0 <system_pinmux_pin_set_config+0x28>)
    20aa:	468c      	mov	ip, r1
    20ac:	4463      	add	r3, ip
	PortGroup *const port = system_pinmux_get_group_from_gpio_pin(gpio_pin);
	uint32_t pin_mask = (1UL << (gpio_pin % 32));
    20ae:	241f      	movs	r4, #31
    20b0:	4020      	ands	r0, r4
    20b2:	2101      	movs	r1, #1
    20b4:	4081      	lsls	r1, r0

	_system_pinmux_config(port, pin_mask, config);
    20b6:	0018      	movs	r0, r3
    20b8:	4b02      	ldr	r3, [pc, #8]	; (20c4 <system_pinmux_pin_set_config+0x2c>)
    20ba:	4798      	blx	r3
}
    20bc:	bd10      	pop	{r4, pc}
    20be:	46c0      	nop			; (mov r8, r8)
    20c0:	41004400 	.word	0x41004400
    20c4:	00001ff1 	.word	0x00001ff1

000020c8 <_system_dummy_init>:
 */
void _system_dummy_init(void);
void _system_dummy_init(void)
{
	return;
}
    20c8:	4770      	bx	lr
	...

000020cc <system_init>:
 *  - Board hardware initialization (via the Board module)
 *  - Event system driver initialization (via the EVSYS module)
 *  - External Interrupt driver initialization (via the EXTINT module)
 */
void system_init(void)
{
    20cc:	b510      	push	{r4, lr}
	/* Configure GCLK and clock sources according to conf_clocks.h */
	system_clock_init();
    20ce:	4b05      	ldr	r3, [pc, #20]	; (20e4 <system_init+0x18>)
    20d0:	4798      	blx	r3

	/* Initialize board hardware */
	system_board_init();
    20d2:	4b05      	ldr	r3, [pc, #20]	; (20e8 <system_init+0x1c>)
    20d4:	4798      	blx	r3

	/* Initialize EVSYS hardware */
	_system_events_init();
    20d6:	4b05      	ldr	r3, [pc, #20]	; (20ec <system_init+0x20>)
    20d8:	4798      	blx	r3

	/* Initialize External hardware */
	_system_extint_init();
    20da:	4b05      	ldr	r3, [pc, #20]	; (20f0 <system_init+0x24>)
    20dc:	4798      	blx	r3
	
	/* Initialize DIVAS hardware */
	_system_divas_init();
    20de:	4b05      	ldr	r3, [pc, #20]	; (20f4 <system_init+0x28>)
    20e0:	4798      	blx	r3
}
    20e2:	bd10      	pop	{r4, pc}
    20e4:	00001cd1 	.word	0x00001cd1
    20e8:	00001b2d 	.word	0x00001b2d
    20ec:	000020c9 	.word	0x000020c9
    20f0:	000020c9 	.word	0x000020c9
    20f4:	000020c9 	.word	0x000020c9

000020f8 <Dummy_Handler>:

/**
 * \brief Default interrupt handler for unused IRQs.
 */
void Dummy_Handler(void)
{
    20f8:	e7fe      	b.n	20f8 <Dummy_Handler>
	...

000020fc <Reset_Handler>:
{
    20fc:	b510      	push	{r4, lr}
        if (pSrc != pDest) {
    20fe:	4a1a      	ldr	r2, [pc, #104]	; (2168 <Reset_Handler+0x6c>)
    2100:	4b1a      	ldr	r3, [pc, #104]	; (216c <Reset_Handler+0x70>)
    2102:	429a      	cmp	r2, r3
    2104:	d011      	beq.n	212a <Reset_Handler+0x2e>
                for (; pDest < &_erelocate;) {
    2106:	001a      	movs	r2, r3
    2108:	4b19      	ldr	r3, [pc, #100]	; (2170 <Reset_Handler+0x74>)
    210a:	429a      	cmp	r2, r3
    210c:	d20d      	bcs.n	212a <Reset_Handler+0x2e>
    210e:	4a19      	ldr	r2, [pc, #100]	; (2174 <Reset_Handler+0x78>)
    2110:	3303      	adds	r3, #3
    2112:	1a9b      	subs	r3, r3, r2
    2114:	089b      	lsrs	r3, r3, #2
    2116:	3301      	adds	r3, #1
    2118:	009b      	lsls	r3, r3, #2
    211a:	2200      	movs	r2, #0
                        *pDest++ = *pSrc++;
    211c:	4813      	ldr	r0, [pc, #76]	; (216c <Reset_Handler+0x70>)
    211e:	4912      	ldr	r1, [pc, #72]	; (2168 <Reset_Handler+0x6c>)
    2120:	588c      	ldr	r4, [r1, r2]
    2122:	5084      	str	r4, [r0, r2]
    2124:	3204      	adds	r2, #4
                for (; pDest < &_erelocate;) {
    2126:	429a      	cmp	r2, r3
    2128:	d1fa      	bne.n	2120 <Reset_Handler+0x24>
        for (pDest = &_szero; pDest < &_ezero;) {
    212a:	4a13      	ldr	r2, [pc, #76]	; (2178 <Reset_Handler+0x7c>)
    212c:	4b13      	ldr	r3, [pc, #76]	; (217c <Reset_Handler+0x80>)
    212e:	429a      	cmp	r2, r3
    2130:	d20a      	bcs.n	2148 <Reset_Handler+0x4c>
    2132:	43d3      	mvns	r3, r2
    2134:	4911      	ldr	r1, [pc, #68]	; (217c <Reset_Handler+0x80>)
    2136:	185b      	adds	r3, r3, r1
    2138:	2103      	movs	r1, #3
    213a:	438b      	bics	r3, r1
    213c:	3304      	adds	r3, #4
    213e:	189b      	adds	r3, r3, r2
                *pDest++ = 0;
    2140:	2100      	movs	r1, #0
    2142:	c202      	stmia	r2!, {r1}
        for (pDest = &_szero; pDest < &_ezero;) {
    2144:	4293      	cmp	r3, r2
    2146:	d1fc      	bne.n	2142 <Reset_Handler+0x46>
        SCB->VTOR = ((uint32_t) pSrc & SCB_VTOR_TBLOFF_Msk);
    2148:	4a0d      	ldr	r2, [pc, #52]	; (2180 <Reset_Handler+0x84>)
    214a:	21ff      	movs	r1, #255	; 0xff
    214c:	4b0d      	ldr	r3, [pc, #52]	; (2184 <Reset_Handler+0x88>)
    214e:	438b      	bics	r3, r1
    2150:	6093      	str	r3, [r2, #8]
        NVMCTRL->CTRLB.bit.MANW = 1;
    2152:	4a0d      	ldr	r2, [pc, #52]	; (2188 <Reset_Handler+0x8c>)
    2154:	6853      	ldr	r3, [r2, #4]
    2156:	397f      	subs	r1, #127	; 0x7f
    2158:	430b      	orrs	r3, r1
    215a:	6053      	str	r3, [r2, #4]
        __libc_init_array();
    215c:	4b0b      	ldr	r3, [pc, #44]	; (218c <Reset_Handler+0x90>)
    215e:	4798      	blx	r3
        main();
    2160:	4b0b      	ldr	r3, [pc, #44]	; (2190 <Reset_Handler+0x94>)
    2162:	4798      	blx	r3
    2164:	e7fe      	b.n	2164 <Reset_Handler+0x68>
    2166:	46c0      	nop			; (mov r8, r8)
    2168:	00002aac 	.word	0x00002aac
    216c:	20000000 	.word	0x20000000
    2170:	20000028 	.word	0x20000028
    2174:	20000004 	.word	0x20000004
    2178:	20000028 	.word	0x20000028
    217c:	20000128 	.word	0x20000128
    2180:	e000ed00 	.word	0xe000ed00
    2184:	00000000 	.word	0x00000000
    2188:	41004000 	.word	0x41004000
    218c:	000027e9 	.word	0x000027e9
    2190:	000021ad 	.word	0x000021ad

00002194 <set_state>:
	usart_enable_callback(&usart_instance, USART_CALLBACK_BUFFER_RECEIVED);
}

void set_state(enum system_states new_state) {
	
	system_state = new_state;
    2194:	4b01      	ldr	r3, [pc, #4]	; (219c <set_state+0x8>)
    2196:	7018      	strb	r0, [r3, #0]
	
}
    2198:	4770      	bx	lr
    219a:	46c0      	nop			; (mov r8, r8)
    219c:	200000ac 	.word	0x200000ac

000021a0 <get_state>:

enum system_states get_state(void) {
	
	return system_state;
    21a0:	4b01      	ldr	r3, [pc, #4]	; (21a8 <get_state+0x8>)
    21a2:	7818      	ldrb	r0, [r3, #0]
	
}
    21a4:	4770      	bx	lr
    21a6:	46c0      	nop			; (mov r8, r8)
    21a8:	200000ac 	.word	0x200000ac

000021ac <main>:
uint16_t notelist1[] = {1000, 2000, 3000, 4000, 5000, 6000, 7000, 5000, 5000, 7000, 12000, 10000, 5000}; 
 


int main (void)
{
    21ac:	b5f0      	push	{r4, r5, r6, r7, lr}
    21ae:	46c6      	mov	lr, r8
    21b0:	b500      	push	{lr}
    21b2:	b08e      	sub	sp, #56	; 0x38
	system_init();
    21b4:	4b97      	ldr	r3, [pc, #604]	; (2414 <main+0x268>)
    21b6:	4798      	blx	r3
	delay_init();
    21b8:	4b97      	ldr	r3, [pc, #604]	; (2418 <main+0x26c>)
    21ba:	4798      	blx	r3
	rprintf_init();
    21bc:	4b97      	ldr	r3, [pc, #604]	; (241c <main+0x270>)
    21be:	4798      	blx	r3
	config->powersave  = false;
    21c0:	ac01      	add	r4, sp, #4
    21c2:	2700      	movs	r7, #0
    21c4:	70a7      	strb	r7, [r4, #2]
	config_port_pin.direction  = PORT_PIN_DIR_OUTPUT;
    21c6:	2301      	movs	r3, #1
    21c8:	4698      	mov	r8, r3
    21ca:	7023      	strb	r3, [r4, #0]
	config_port_pin.input_pull = PORT_PIN_PULL_DOWN;
    21cc:	2302      	movs	r3, #2
    21ce:	7063      	strb	r3, [r4, #1]
	port_pin_set_config(MOTOR_CONTROLLER_DIR_PIN, &config_port_pin);
    21d0:	0021      	movs	r1, r4
    21d2:	2014      	movs	r0, #20
    21d4:	4e92      	ldr	r6, [pc, #584]	; (2420 <main+0x274>)
    21d6:	47b0      	blx	r6
	port_pin_set_config(MOTOR_CONTROLLER_STP_PIN, &config_port_pin);
    21d8:	0021      	movs	r1, r4
    21da:	2015      	movs	r0, #21
    21dc:	47b0      	blx	r6
	port_pin_set_config(MOTOR_CONTROLLER_SS_PIN, &config_port_pin);
    21de:	0021      	movs	r1, r4
    21e0:	2026      	movs	r0, #38	; 0x26
    21e2:	47b0      	blx	r6
	slave->ss_pin          = config->ss_pin;
    21e4:	4d8f      	ldr	r5, [pc, #572]	; (2424 <main+0x278>)
    21e6:	2326      	movs	r3, #38	; 0x26
    21e8:	702b      	strb	r3, [r5, #0]
	slave->address_enabled = config->address_enabled;
    21ea:	706f      	strb	r7, [r5, #1]
	slave->address         = config->address;
    21ec:	70af      	strb	r7, [r5, #2]
	config->input_pull = PORT_PIN_PULL_UP;
    21ee:	4643      	mov	r3, r8
    21f0:	7063      	strb	r3, [r4, #1]
	config->powersave  = false;
    21f2:	70a7      	strb	r7, [r4, #2]
	pin_conf.direction = PORT_PIN_DIR_OUTPUT;
    21f4:	7023      	strb	r3, [r4, #0]
	port_pin_set_config(slave->ss_pin, &pin_conf);
    21f6:	0021      	movs	r1, r4
    21f8:	2026      	movs	r0, #38	; 0x26
    21fa:	47b0      	blx	r6
	port_pin_set_output_level(slave->ss_pin, true);
    21fc:	782a      	ldrb	r2, [r5, #0]
	uint8_t group_index = (gpio_pin / 32);
    21fe:	0953      	lsrs	r3, r2, #5
	if (port_index < PORT_INST_NUM) {
    2200:	09d0      	lsrs	r0, r2, #7
		return NULL;
    2202:	2100      	movs	r1, #0
	if (port_index < PORT_INST_NUM) {
    2204:	2800      	cmp	r0, #0
    2206:	d102      	bne.n	220e <main+0x62>
		return &(ports[port_index]->Group[group_index]);
    2208:	01db      	lsls	r3, r3, #7
    220a:	4987      	ldr	r1, [pc, #540]	; (2428 <main+0x27c>)
    220c:	1859      	adds	r1, r3, r1
	uint32_t pin_mask  = (1UL << (gpio_pin % 32));
    220e:	231f      	movs	r3, #31
    2210:	4013      	ands	r3, r2
    2212:	2201      	movs	r2, #1
    2214:	0010      	movs	r0, r2
    2216:	4098      	lsls	r0, r3
		port_base->OUTSET.reg = pin_mask;
    2218:	6188      	str	r0, [r1, #24]
	config->mode             = SPI_MODE_MASTER;
    221a:	ac01      	add	r4, sp, #4
    221c:	7022      	strb	r2, [r4, #0]
	config->data_order       = SPI_DATA_ORDER_MSB;
    221e:	2300      	movs	r3, #0
    2220:	9302      	str	r3, [sp, #8]
	config->character_size   = SPI_CHARACTER_SIZE_8BIT;
    2222:	7423      	strb	r3, [r4, #16]
	config->run_in_standby   = false;
    2224:	7463      	strb	r3, [r4, #17]
	config->receiver_enable  = true;
    2226:	74a2      	strb	r2, [r4, #18]
	config->generator_source = GCLK_GENERATOR_0;
    2228:	321f      	adds	r2, #31
    222a:	54a3      	strb	r3, [r4, r2]
	memset(&(config->mode_specific), 0, sizeof(config->mode_specific));
    222c:	3a14      	subs	r2, #20
    222e:	2100      	movs	r1, #0
    2230:	a806      	add	r0, sp, #24
    2232:	4b7e      	ldr	r3, [pc, #504]	; (242c <main+0x280>)
    2234:	4798      	blx	r3
	config->mode_specific.master.baudrate = 100000;
    2236:	4b7e      	ldr	r3, [pc, #504]	; (2430 <main+0x284>)
    2238:	6163      	str	r3, [r4, #20]
	config_spi_master.transfer_mode = SPI_TRANSFER_MODE_3;
    223a:	23c0      	movs	r3, #192	; 0xc0
    223c:	059b      	lsls	r3, r3, #22
    223e:	60a3      	str	r3, [r4, #8]
	config_spi_master.mux_setting = EXT1_SPI_SERCOM_MUX_SETTING;
    2240:	2380      	movs	r3, #128	; 0x80
    2242:	025b      	lsls	r3, r3, #9
    2244:	60e3      	str	r3, [r4, #12]
	config_spi_master.pinmux_pad0 = EXT1_SPI_SERCOM_PINMUX_PAD0;
    2246:	4b7b      	ldr	r3, [pc, #492]	; (2434 <main+0x288>)
    2248:	6263      	str	r3, [r4, #36]	; 0x24
	config_spi_master.pinmux_pad1 = PINMUX_UNUSED;
    224a:	2301      	movs	r3, #1
    224c:	425b      	negs	r3, r3
    224e:	62a3      	str	r3, [r4, #40]	; 0x28
	config_spi_master.pinmux_pad2 = EXT1_SPI_SERCOM_PINMUX_PAD2;
    2250:	4b79      	ldr	r3, [pc, #484]	; (2438 <main+0x28c>)
    2252:	62e3      	str	r3, [r4, #44]	; 0x2c
	config_spi_master.pinmux_pad3 = EXT1_SPI_SERCOM_PINMUX_PAD3;
    2254:	4b79      	ldr	r3, [pc, #484]	; (243c <main+0x290>)
    2256:	6323      	str	r3, [r4, #48]	; 0x30
	spi_init(&spi_master_instance, EXT1_SPI_MODULE, &config_spi_master);
    2258:	4d79      	ldr	r5, [pc, #484]	; (2440 <main+0x294>)
    225a:	0022      	movs	r2, r4
    225c:	4979      	ldr	r1, [pc, #484]	; (2444 <main+0x298>)
    225e:	0028      	movs	r0, r5
    2260:	4b79      	ldr	r3, [pc, #484]	; (2448 <main+0x29c>)
    2262:	4798      	blx	r3
	SercomSpi *const spi_module = &(module->hw->SPI);
    2264:	682b      	ldr	r3, [r5, #0]
	return (spi_module->STATUS.reg & SERCOM_SPI_STATUS_SYNCBUSY);
    2266:	8a1a      	ldrh	r2, [r3, #16]
	while (spi_is_syncing(module)) {
    2268:	b212      	sxth	r2, r2
    226a:	2a00      	cmp	r2, #0
    226c:	dbfb      	blt.n	2266 <main+0xba>
	spi_module->CTRLA.reg |= SERCOM_SPI_CTRLA_ENABLE;
    226e:	681a      	ldr	r2, [r3, #0]
    2270:	2102      	movs	r1, #2
    2272:	430a      	orrs	r2, r1
    2274:	601a      	str	r2, [r3, #0]
	stepper_motor_config.direction_set = DRV_DIRPIN;
    2276:	ac01      	add	r4, sp, #4
    2278:	2300      	movs	r3, #0
    227a:	70a3      	strb	r3, [r4, #2]
	stepper_motor_config.step_mode = DRV_MODE_1_2;
    227c:	2008      	movs	r0, #8
    227e:	70e0      	strb	r0, [r4, #3]
	stepper_motor_config.stall_detect = DRV_EXSTALL_INTERNAL;
    2280:	7123      	strb	r3, [r4, #4]
	stepper_motor_config.isense_gain = DRV_ISGAIN_40;
    2282:	22c0      	movs	r2, #192	; 0xc0
    2284:	0092      	lsls	r2, r2, #2
    2286:	80e2      	strh	r2, [r4, #6]
	stepper_motor_config.dead_time_insert = DRV_DTIME_850ns; //Check if change is needed
    2288:	22c0      	movs	r2, #192	; 0xc0
    228a:	0112      	lsls	r2, r2, #4
    228c:	8122      	strh	r2, [r4, #8]
	stepper_motor_config.drv_torque = 0x96;
    228e:	2296      	movs	r2, #150	; 0x96
    2290:	72a2      	strb	r2, [r4, #10]
	stepper_motor_config.backemf_sample_th = DRV_SMPLTH_200us; //Check if change is needed
    2292:	326b      	adds	r2, #107	; 0x6b
    2294:	32ff      	adds	r2, #255	; 0xff
    2296:	81a2      	strh	r2, [r4, #12]
	stepper_motor_config.drv_toff = 0x80; // Check if change is needed
    2298:	317e      	adds	r1, #126	; 0x7e
    229a:	73a1      	strb	r1, [r4, #14]
	stepper_motor_config.pwm_mode = DRV_PWMMODE_INTERNAL;
    229c:	2500      	movs	r5, #0
    229e:	8223      	strh	r3, [r4, #16]
	stepper_motor_config.drv_tblank = 0xFF; //Check if change is needed
    22a0:	26ff      	movs	r6, #255	; 0xff
    22a2:	74a6      	strb	r6, [r4, #18]
	stepper_motor_config.adaptive_blanking_time= DRV_ABT_DISABLE;
    22a4:	82a3      	strh	r3, [r4, #20]
	stepper_motor_config.drv_tdecay = 0x10; //Check if check is needed
    22a6:	3eef      	subs	r6, #239	; 0xef
    22a8:	75a6      	strb	r6, [r4, #22]
	stepper_motor_config.decay_mode = DRV_DECMOD_FORCE_SLOWINC_FASTDEC; //Check if change is needed
    22aa:	3e0f      	subs	r6, #15
    22ac:	75e6      	strb	r6, [r4, #23]
	stepper_motor_config.ocp_threshold = DRV_OCPTH_250mV;
    22ae:	77a5      	strb	r5, [r4, #30]
	stepper_motor_config.ocp_deglitch_time = DRV_OCPDEG_4us;
    22b0:	77e0      	strb	r0, [r4, #31]
	stepper_motor_config.ls_drive_time = DRV_TDRIVEN_1us;
    22b2:	3018      	adds	r0, #24
    22b4:	5420      	strb	r0, [r4, r0]
	stepper_motor_config.hs_drive_time = DRV_TDRIVEP_1us;
    22b6:	3001      	adds	r0, #1
    22b8:	5421      	strb	r1, [r4, r0]
	stepper_motor_config.ls_current = DRV_IDRIVEN_100mA;
    22ba:	8463      	strh	r3, [r4, #34]	; 0x22
	stepper_motor_config.hs_current = DRV_IDRIVEP_100mA;
    22bc:	84a3      	strh	r3, [r4, #36]	; 0x24
	stepper_motor_config.drv_sdthr = 0x40; //Check if change is needed
    22be:	3940      	subs	r1, #64	; 0x40
    22c0:	7621      	strb	r1, [r4, #24]
	stepper_motor_config.stall_count = DRV_SDCNT_4; //Check if change is needed
    22c2:	8362      	strh	r2, [r4, #26]
	stepper_motor_config.back_emf_div = DRV_VDIV_32;
    22c4:	83a3      	strh	r3, [r4, #28]
	drv_ctrl_init(&stepper_motor_config);
    22c6:	0020      	movs	r0, r4
    22c8:	4b60      	ldr	r3, [pc, #384]	; (244c <main+0x2a0>)
    22ca:	4798      	blx	r3
	drv_ctrl_enable();
    22cc:	4b60      	ldr	r3, [pc, #384]	; (2450 <main+0x2a4>)
    22ce:	4798      	blx	r3
	adc_get_config_defaults(&config_adc);
    22d0:	0020      	movs	r0, r4
    22d2:	4b60      	ldr	r3, [pc, #384]	; (2454 <main+0x2a8>)
    22d4:	4798      	blx	r3
	config_adc.negative_input = ADC_NEGATIVE_INPUT_GND; //Maybe change to external GND Pin
    22d6:	23c0      	movs	r3, #192	; 0xc0
    22d8:	015b      	lsls	r3, r3, #5
    22da:	81e3      	strh	r3, [r4, #14]
	config_adc.positive_input = ADC_POSITIVE_INPUT_PIN0;
    22dc:	7325      	strb	r5, [r4, #12]
	config_adc.reference = ADC_REFERENCE_AREFA;
    22de:	2303      	movs	r3, #3
    22e0:	7063      	strb	r3, [r4, #1]
	adc_init(&adc_instance, ADC, &config_adc);
    22e2:	4d5d      	ldr	r5, [pc, #372]	; (2458 <main+0x2ac>)
    22e4:	0022      	movs	r2, r4
    22e6:	495d      	ldr	r1, [pc, #372]	; (245c <main+0x2b0>)
    22e8:	0028      	movs	r0, r5
    22ea:	4b5d      	ldr	r3, [pc, #372]	; (2460 <main+0x2b4>)
    22ec:	4798      	blx	r3
	Adc *const adc_module = module_inst->hw;
    22ee:	682b      	ldr	r3, [r5, #0]
    22f0:	7e5a      	ldrb	r2, [r3, #25]
	while (adc_is_syncing(module_inst)) {
    22f2:	b252      	sxtb	r2, r2
    22f4:	2a00      	cmp	r2, #0
    22f6:	dbfb      	blt.n	22f0 <main+0x144>
	adc_module->INTENCLR.reg = ADC_INTENCLR_MASK;
    22f8:	220f      	movs	r2, #15
    22fa:	759a      	strb	r2, [r3, #22]
	adc_module->INTFLAG.reg = ADC_INTFLAG_MASK;
    22fc:	761a      	strb	r2, [r3, #24]
	adc_module->CTRLA.reg |= ADC_CTRLA_ENABLE;
    22fe:	781a      	ldrb	r2, [r3, #0]
    2300:	2102      	movs	r1, #2
    2302:	430a      	orrs	r2, r1
    2304:	701a      	strb	r2, [r3, #0]
	Adc *const adc_module = module_inst->hw;
    2306:	4b54      	ldr	r3, [pc, #336]	; (2458 <main+0x2ac>)
    2308:	681a      	ldr	r2, [r3, #0]
	if (adc_module->STATUS.reg & ADC_STATUS_SYNCBUSY) {
    230a:	7e53      	ldrb	r3, [r2, #25]
	while (adc_is_syncing(module_inst)) {
    230c:	b25b      	sxtb	r3, r3
    230e:	2b00      	cmp	r3, #0
    2310:	dbfb      	blt.n	230a <main+0x15e>
	config->data_order       = USART_DATAORDER_LSB;
    2312:	ab01      	add	r3, sp, #4
    2314:	2280      	movs	r2, #128	; 0x80
    2316:	05d2      	lsls	r2, r2, #23
    2318:	9201      	str	r2, [sp, #4]
	config->transfer_mode    = USART_TRANSFER_ASYNCHRONOUSLY;
    231a:	2200      	movs	r2, #0
    231c:	605a      	str	r2, [r3, #4]
	config->parity           = USART_PARITY_NONE;
    231e:	21ff      	movs	r1, #255	; 0xff
    2320:	8119      	strh	r1, [r3, #8]
	config->stopbits         = USART_STOPBITS_1;
    2322:	729a      	strb	r2, [r3, #10]
	config->character_size   = USART_CHARACTER_SIZE_8BIT;
    2324:	72da      	strb	r2, [r3, #11]
	config->baudrate         = 9600;
    2326:	2196      	movs	r1, #150	; 0x96
    2328:	0189      	lsls	r1, r1, #6
    232a:	6119      	str	r1, [r3, #16]
	config->receiver_enable  = true;
    232c:	2101      	movs	r1, #1
    232e:	7519      	strb	r1, [r3, #20]
	config->transmitter_enable = true;
    2330:	7559      	strb	r1, [r3, #21]
	config->clock_polarity_inverted = false;
    2332:	759a      	strb	r2, [r3, #22]
	config->use_external_clock = false;
    2334:	75da      	strb	r2, [r3, #23]
	config->ext_clock_freq   = 0;
    2336:	619a      	str	r2, [r3, #24]
	config->run_in_standby   = false;
    2338:	771a      	strb	r2, [r3, #28]
	config->generator_source = GCLK_GENERATOR_0;
    233a:	775a      	strb	r2, [r3, #29]
	config_usart.mux_setting = EXT1_UART_SERCOM_MUX_SETTING;
    233c:	2280      	movs	r2, #128	; 0x80
    233e:	0352      	lsls	r2, r2, #13
    2340:	60da      	str	r2, [r3, #12]
	config_usart.pinmux_pad0 = EXT1_UART_SERCOM_PINMUX_PAD0;
    2342:	4a48      	ldr	r2, [pc, #288]	; (2464 <main+0x2b8>)
    2344:	621a      	str	r2, [r3, #32]
	config_usart.pinmux_pad1 = EXT1_UART_SERCOM_PINMUX_PAD1;
    2346:	4a48      	ldr	r2, [pc, #288]	; (2468 <main+0x2bc>)
    2348:	625a      	str	r2, [r3, #36]	; 0x24
	config_usart.pinmux_pad2 = EXT1_UART_SERCOM_PINMUX_PAD2;
    234a:	2201      	movs	r2, #1
    234c:	4252      	negs	r2, r2
    234e:	629a      	str	r2, [r3, #40]	; 0x28
	config_usart.pinmux_pad3 = EXT1_UART_SERCOM_PINMUX_PAD3;
    2350:	62da      	str	r2, [r3, #44]	; 0x2c
	while(usart_init(&usart_instance, EXT1_UART_MODULE, &config_usart) != STATUS_OK){
    2352:	4d46      	ldr	r5, [pc, #280]	; (246c <main+0x2c0>)
    2354:	4c46      	ldr	r4, [pc, #280]	; (2470 <main+0x2c4>)
    2356:	e006      	b.n	2366 <main+0x1ba>
		delay_ms(1000);
    2358:	20fa      	movs	r0, #250	; 0xfa
    235a:	0080      	lsls	r0, r0, #2
    235c:	4b45      	ldr	r3, [pc, #276]	; (2474 <main+0x2c8>)
    235e:	4798      	blx	r3
		rprintf("Wait");
    2360:	4845      	ldr	r0, [pc, #276]	; (2478 <main+0x2cc>)
    2362:	4b46      	ldr	r3, [pc, #280]	; (247c <main+0x2d0>)
    2364:	4798      	blx	r3
	while(usart_init(&usart_instance, EXT1_UART_MODULE, &config_usart) != STATUS_OK){
    2366:	aa01      	add	r2, sp, #4
    2368:	4945      	ldr	r1, [pc, #276]	; (2480 <main+0x2d4>)
    236a:	0028      	movs	r0, r5
    236c:	47a0      	blx	r4
    236e:	2800      	cmp	r0, #0
    2370:	d1f2      	bne.n	2358 <main+0x1ac>
	SercomUsart *const usart_hw = &(module->hw->USART);
    2372:	4d3e      	ldr	r5, [pc, #248]	; (246c <main+0x2c0>)
    2374:	682c      	ldr	r4, [r5, #0]
	system_interrupt_enable(_sercom_get_interrupt_vector(module->hw));
    2376:	0020      	movs	r0, r4
    2378:	4b42      	ldr	r3, [pc, #264]	; (2484 <main+0x2d8>)
    237a:	4798      	blx	r3
	NVIC->ISER[0] = (uint32_t)(1 << ((uint32_t)vector & 0x0000001f));
    237c:	231f      	movs	r3, #31
    237e:	4018      	ands	r0, r3
    2380:	3b1e      	subs	r3, #30
    2382:	4083      	lsls	r3, r0
    2384:	4a40      	ldr	r2, [pc, #256]	; (2488 <main+0x2dc>)
    2386:	6013      	str	r3, [r2, #0]
	SercomUsart *const usart_hw = &(module->hw->USART);
    2388:	682a      	ldr	r2, [r5, #0]
	return (usart_hw->STATUS.reg & SERCOM_USART_STATUS_SYNCBUSY);
    238a:	8a13      	ldrh	r3, [r2, #16]
	while (usart_is_syncing(module)) {
    238c:	b21b      	sxth	r3, r3
    238e:	2b00      	cmp	r3, #0
    2390:	dbfb      	blt.n	238a <main+0x1de>
	usart_hw->CTRLA.reg |= SERCOM_USART_CTRLA_ENABLE;
    2392:	6823      	ldr	r3, [r4, #0]
    2394:	2202      	movs	r2, #2
    2396:	4313      	orrs	r3, r2
    2398:	6023      	str	r3, [r4, #0]
	/* Sanity check arguments */
	Assert(module);
	Assert(module->hw);

	/* Get a pointer to the hardware module instance */
	SercomUsart *const usart_hw = &(module->hw->USART);
    239a:	4b34      	ldr	r3, [pc, #208]	; (246c <main+0x2c0>)
    239c:	681b      	ldr	r3, [r3, #0]
	return (usart_hw->STATUS.reg & SERCOM_USART_STATUS_SYNCBUSY);
    239e:	8a1a      	ldrh	r2, [r3, #16]
	while (usart_is_syncing(module)) {
    23a0:	b212      	sxth	r2, r2
    23a2:	2a00      	cmp	r2, #0
    23a4:	dbfb      	blt.n	239e <main+0x1f2>
			module->receiver_enabled = true;
			break;

		case USART_TRANSCEIVER_TX:
			/* Enable TX */
			usart_hw->CTRLB.reg |= SERCOM_USART_CTRLB_TXEN;
    23a6:	6859      	ldr	r1, [r3, #4]
    23a8:	2280      	movs	r2, #128	; 0x80
    23aa:	0252      	lsls	r2, r2, #9
    23ac:	430a      	orrs	r2, r1
    23ae:	605a      	str	r2, [r3, #4]
			module->transmitter_enabled = true;
    23b0:	2101      	movs	r1, #1
    23b2:	4a2e      	ldr	r2, [pc, #184]	; (246c <main+0x2c0>)
    23b4:	71d1      	strb	r1, [r2, #7]
	return (usart_hw->STATUS.reg & SERCOM_USART_STATUS_SYNCBUSY);
    23b6:	8a1a      	ldrh	r2, [r3, #16]
	while (usart_is_syncing(module)) {
    23b8:	b212      	sxth	r2, r2
    23ba:	2a00      	cmp	r2, #0
    23bc:	dbfb      	blt.n	23b6 <main+0x20a>
	return (usart_hw->STATUS.reg & SERCOM_USART_STATUS_SYNCBUSY);
    23be:	8a1a      	ldrh	r2, [r3, #16]
	while (usart_is_syncing(module)) {
    23c0:	b212      	sxth	r2, r2
    23c2:	2a00      	cmp	r2, #0
    23c4:	dbfb      	blt.n	23be <main+0x212>
			usart_hw->CTRLB.reg |= SERCOM_USART_CTRLB_RXEN;
    23c6:	6859      	ldr	r1, [r3, #4]
    23c8:	2280      	movs	r2, #128	; 0x80
    23ca:	0292      	lsls	r2, r2, #10
    23cc:	430a      	orrs	r2, r1
    23ce:	605a      	str	r2, [r3, #4]
			module->receiver_enabled = true;
    23d0:	2101      	movs	r1, #1
    23d2:	4a26      	ldr	r2, [pc, #152]	; (246c <main+0x2c0>)
    23d4:	7191      	strb	r1, [r2, #6]
	return (usart_hw->STATUS.reg & SERCOM_USART_STATUS_SYNCBUSY);
    23d6:	8a1a      	ldrh	r2, [r3, #16]
	while (usart_is_syncing(module)) {
    23d8:	b212      	sxth	r2, r2
    23da:	2a00      	cmp	r2, #0
    23dc:	dbfb      	blt.n	23d6 <main+0x22a>
	usart_register_callback(&usart_instance,
    23de:	4c23      	ldr	r4, [pc, #140]	; (246c <main+0x2c0>)
    23e0:	2201      	movs	r2, #1
    23e2:	492a      	ldr	r1, [pc, #168]	; (248c <main+0x2e0>)
    23e4:	0020      	movs	r0, r4
    23e6:	4b2a      	ldr	r3, [pc, #168]	; (2490 <main+0x2e4>)
    23e8:	4798      	blx	r3
{
	/* Sanity check arguments */
	Assert(module);

	/* Enable callback */
	module->callback_enable_mask |= (1 << callback_type);
    23ea:	2221      	movs	r2, #33	; 0x21
    23ec:	5ca3      	ldrb	r3, [r4, r2]
    23ee:	2102      	movs	r1, #2
    23f0:	430b      	orrs	r3, r1
    23f2:	54a3      	strb	r3, [r4, r2]
    configure_spi_master();
	configure_stepper_motor();
	configure_adc();
	configure_usart();
	configure_usart_callbacks();
	force_sense_calibrate();
    23f4:	4b27      	ldr	r3, [pc, #156]	; (2494 <main+0x2e8>)
    23f6:	4798      	blx	r3
	cpu_irq_enable();
    23f8:	2201      	movs	r2, #1
    23fa:	4b27      	ldr	r3, [pc, #156]	; (2498 <main+0x2ec>)
    23fc:	701a      	strb	r2, [r3, #0]
  __ASM volatile ("dmb 0xF":::"memory");
    23fe:	f3bf 8f5f 	dmb	sy
  __ASM volatile ("cpsie i" : : : "memory");
    2402:	b662      	cpsie	i
	system_interrupt_enable_global();
	
	plc_com_arm_receiver();
    2404:	4b25      	ldr	r3, [pc, #148]	; (249c <main+0x2f0>)
    2406:	4798      	blx	r3
	
	while (1) {
		
		play_music(notelist1);
    2408:	4d25      	ldr	r5, [pc, #148]	; (24a0 <main+0x2f4>)
    240a:	4c26      	ldr	r4, [pc, #152]	; (24a4 <main+0x2f8>)
    240c:	0028      	movs	r0, r5
    240e:	47a0      	blx	r4
    2410:	e7fc      	b.n	240c <main+0x260>
    2412:	46c0      	nop			; (mov r8, r8)
    2414:	000020cd 	.word	0x000020cd
    2418:	00000105 	.word	0x00000105
    241c:	00001811 	.word	0x00001811
    2420:	00001b65 	.word	0x00001b65
    2424:	20000114 	.word	0x20000114
    2428:	41004400 	.word	0x41004400
    242c:	00002843 	.word	0x00002843
    2430:	000186a0 	.word	0x000186a0
    2434:	00040003 	.word	0x00040003
    2438:	00060003 	.word	0x00060003
    243c:	00070003 	.word	0x00070003
    2440:	20000118 	.word	0x20000118
    2444:	42000800 	.word	0x42000800
    2448:	00000a61 	.word	0x00000a61
    244c:	0000147d 	.word	0x0000147d
    2450:	000014f5 	.word	0x000014f5
    2454:	0000019d 	.word	0x0000019d
    2458:	20000120 	.word	0x20000120
    245c:	42004000 	.word	0x42004000
    2460:	000001e5 	.word	0x000001e5
    2464:	00280003 	.word	0x00280003
    2468:	00290003 	.word	0x00290003
    246c:	200000f0 	.word	0x200000f0
    2470:	00000f61 	.word	0x00000f61
    2474:	00000171 	.word	0x00000171
    2478:	00002a84 	.word	0x00002a84
    247c:	000018a5 	.word	0x000018a5
    2480:	42001800 	.word	0x42001800
    2484:	000009d1 	.word	0x000009d1
    2488:	e000e100 	.word	0xe000e100
    248c:	0000160d 	.word	0x0000160d
    2490:	000012cd 	.word	0x000012cd
    2494:	00001599 	.word	0x00001599
    2498:	20000008 	.word	0x20000008
    249c:	000015f5 	.word	0x000015f5
    24a0:	2000000c 	.word	0x2000000c
    24a4:	00001a25 	.word	0x00001a25

000024a8 <__udivsi3>:
    24a8:	2200      	movs	r2, #0
    24aa:	0843      	lsrs	r3, r0, #1
    24ac:	428b      	cmp	r3, r1
    24ae:	d374      	bcc.n	259a <__udivsi3+0xf2>
    24b0:	0903      	lsrs	r3, r0, #4
    24b2:	428b      	cmp	r3, r1
    24b4:	d35f      	bcc.n	2576 <__udivsi3+0xce>
    24b6:	0a03      	lsrs	r3, r0, #8
    24b8:	428b      	cmp	r3, r1
    24ba:	d344      	bcc.n	2546 <__udivsi3+0x9e>
    24bc:	0b03      	lsrs	r3, r0, #12
    24be:	428b      	cmp	r3, r1
    24c0:	d328      	bcc.n	2514 <__udivsi3+0x6c>
    24c2:	0c03      	lsrs	r3, r0, #16
    24c4:	428b      	cmp	r3, r1
    24c6:	d30d      	bcc.n	24e4 <__udivsi3+0x3c>
    24c8:	22ff      	movs	r2, #255	; 0xff
    24ca:	0209      	lsls	r1, r1, #8
    24cc:	ba12      	rev	r2, r2
    24ce:	0c03      	lsrs	r3, r0, #16
    24d0:	428b      	cmp	r3, r1
    24d2:	d302      	bcc.n	24da <__udivsi3+0x32>
    24d4:	1212      	asrs	r2, r2, #8
    24d6:	0209      	lsls	r1, r1, #8
    24d8:	d065      	beq.n	25a6 <__udivsi3+0xfe>
    24da:	0b03      	lsrs	r3, r0, #12
    24dc:	428b      	cmp	r3, r1
    24de:	d319      	bcc.n	2514 <__udivsi3+0x6c>
    24e0:	e000      	b.n	24e4 <__udivsi3+0x3c>
    24e2:	0a09      	lsrs	r1, r1, #8
    24e4:	0bc3      	lsrs	r3, r0, #15
    24e6:	428b      	cmp	r3, r1
    24e8:	d301      	bcc.n	24ee <__udivsi3+0x46>
    24ea:	03cb      	lsls	r3, r1, #15
    24ec:	1ac0      	subs	r0, r0, r3
    24ee:	4152      	adcs	r2, r2
    24f0:	0b83      	lsrs	r3, r0, #14
    24f2:	428b      	cmp	r3, r1
    24f4:	d301      	bcc.n	24fa <__udivsi3+0x52>
    24f6:	038b      	lsls	r3, r1, #14
    24f8:	1ac0      	subs	r0, r0, r3
    24fa:	4152      	adcs	r2, r2
    24fc:	0b43      	lsrs	r3, r0, #13
    24fe:	428b      	cmp	r3, r1
    2500:	d301      	bcc.n	2506 <__udivsi3+0x5e>
    2502:	034b      	lsls	r3, r1, #13
    2504:	1ac0      	subs	r0, r0, r3
    2506:	4152      	adcs	r2, r2
    2508:	0b03      	lsrs	r3, r0, #12
    250a:	428b      	cmp	r3, r1
    250c:	d301      	bcc.n	2512 <__udivsi3+0x6a>
    250e:	030b      	lsls	r3, r1, #12
    2510:	1ac0      	subs	r0, r0, r3
    2512:	4152      	adcs	r2, r2
    2514:	0ac3      	lsrs	r3, r0, #11
    2516:	428b      	cmp	r3, r1
    2518:	d301      	bcc.n	251e <__udivsi3+0x76>
    251a:	02cb      	lsls	r3, r1, #11
    251c:	1ac0      	subs	r0, r0, r3
    251e:	4152      	adcs	r2, r2
    2520:	0a83      	lsrs	r3, r0, #10
    2522:	428b      	cmp	r3, r1
    2524:	d301      	bcc.n	252a <__udivsi3+0x82>
    2526:	028b      	lsls	r3, r1, #10
    2528:	1ac0      	subs	r0, r0, r3
    252a:	4152      	adcs	r2, r2
    252c:	0a43      	lsrs	r3, r0, #9
    252e:	428b      	cmp	r3, r1
    2530:	d301      	bcc.n	2536 <__udivsi3+0x8e>
    2532:	024b      	lsls	r3, r1, #9
    2534:	1ac0      	subs	r0, r0, r3
    2536:	4152      	adcs	r2, r2
    2538:	0a03      	lsrs	r3, r0, #8
    253a:	428b      	cmp	r3, r1
    253c:	d301      	bcc.n	2542 <__udivsi3+0x9a>
    253e:	020b      	lsls	r3, r1, #8
    2540:	1ac0      	subs	r0, r0, r3
    2542:	4152      	adcs	r2, r2
    2544:	d2cd      	bcs.n	24e2 <__udivsi3+0x3a>
    2546:	09c3      	lsrs	r3, r0, #7
    2548:	428b      	cmp	r3, r1
    254a:	d301      	bcc.n	2550 <__udivsi3+0xa8>
    254c:	01cb      	lsls	r3, r1, #7
    254e:	1ac0      	subs	r0, r0, r3
    2550:	4152      	adcs	r2, r2
    2552:	0983      	lsrs	r3, r0, #6
    2554:	428b      	cmp	r3, r1
    2556:	d301      	bcc.n	255c <__udivsi3+0xb4>
    2558:	018b      	lsls	r3, r1, #6
    255a:	1ac0      	subs	r0, r0, r3
    255c:	4152      	adcs	r2, r2
    255e:	0943      	lsrs	r3, r0, #5
    2560:	428b      	cmp	r3, r1
    2562:	d301      	bcc.n	2568 <__udivsi3+0xc0>
    2564:	014b      	lsls	r3, r1, #5
    2566:	1ac0      	subs	r0, r0, r3
    2568:	4152      	adcs	r2, r2
    256a:	0903      	lsrs	r3, r0, #4
    256c:	428b      	cmp	r3, r1
    256e:	d301      	bcc.n	2574 <__udivsi3+0xcc>
    2570:	010b      	lsls	r3, r1, #4
    2572:	1ac0      	subs	r0, r0, r3
    2574:	4152      	adcs	r2, r2
    2576:	08c3      	lsrs	r3, r0, #3
    2578:	428b      	cmp	r3, r1
    257a:	d301      	bcc.n	2580 <__udivsi3+0xd8>
    257c:	00cb      	lsls	r3, r1, #3
    257e:	1ac0      	subs	r0, r0, r3
    2580:	4152      	adcs	r2, r2
    2582:	0883      	lsrs	r3, r0, #2
    2584:	428b      	cmp	r3, r1
    2586:	d301      	bcc.n	258c <__udivsi3+0xe4>
    2588:	008b      	lsls	r3, r1, #2
    258a:	1ac0      	subs	r0, r0, r3
    258c:	4152      	adcs	r2, r2
    258e:	0843      	lsrs	r3, r0, #1
    2590:	428b      	cmp	r3, r1
    2592:	d301      	bcc.n	2598 <__udivsi3+0xf0>
    2594:	004b      	lsls	r3, r1, #1
    2596:	1ac0      	subs	r0, r0, r3
    2598:	4152      	adcs	r2, r2
    259a:	1a41      	subs	r1, r0, r1
    259c:	d200      	bcs.n	25a0 <__udivsi3+0xf8>
    259e:	4601      	mov	r1, r0
    25a0:	4152      	adcs	r2, r2
    25a2:	4610      	mov	r0, r2
    25a4:	4770      	bx	lr
    25a6:	e7ff      	b.n	25a8 <__udivsi3+0x100>
    25a8:	b501      	push	{r0, lr}
    25aa:	2000      	movs	r0, #0
    25ac:	f000 f8f0 	bl	2790 <__aeabi_idiv0>
    25b0:	bd02      	pop	{r1, pc}
    25b2:	46c0      	nop			; (mov r8, r8)

000025b4 <__aeabi_uidivmod>:
    25b4:	2900      	cmp	r1, #0
    25b6:	d0f7      	beq.n	25a8 <__udivsi3+0x100>
    25b8:	e776      	b.n	24a8 <__udivsi3>
    25ba:	4770      	bx	lr

000025bc <__divsi3>:
    25bc:	4603      	mov	r3, r0
    25be:	430b      	orrs	r3, r1
    25c0:	d47f      	bmi.n	26c2 <__divsi3+0x106>
    25c2:	2200      	movs	r2, #0
    25c4:	0843      	lsrs	r3, r0, #1
    25c6:	428b      	cmp	r3, r1
    25c8:	d374      	bcc.n	26b4 <__divsi3+0xf8>
    25ca:	0903      	lsrs	r3, r0, #4
    25cc:	428b      	cmp	r3, r1
    25ce:	d35f      	bcc.n	2690 <__divsi3+0xd4>
    25d0:	0a03      	lsrs	r3, r0, #8
    25d2:	428b      	cmp	r3, r1
    25d4:	d344      	bcc.n	2660 <__divsi3+0xa4>
    25d6:	0b03      	lsrs	r3, r0, #12
    25d8:	428b      	cmp	r3, r1
    25da:	d328      	bcc.n	262e <__divsi3+0x72>
    25dc:	0c03      	lsrs	r3, r0, #16
    25de:	428b      	cmp	r3, r1
    25e0:	d30d      	bcc.n	25fe <__divsi3+0x42>
    25e2:	22ff      	movs	r2, #255	; 0xff
    25e4:	0209      	lsls	r1, r1, #8
    25e6:	ba12      	rev	r2, r2
    25e8:	0c03      	lsrs	r3, r0, #16
    25ea:	428b      	cmp	r3, r1
    25ec:	d302      	bcc.n	25f4 <__divsi3+0x38>
    25ee:	1212      	asrs	r2, r2, #8
    25f0:	0209      	lsls	r1, r1, #8
    25f2:	d065      	beq.n	26c0 <__divsi3+0x104>
    25f4:	0b03      	lsrs	r3, r0, #12
    25f6:	428b      	cmp	r3, r1
    25f8:	d319      	bcc.n	262e <__divsi3+0x72>
    25fa:	e000      	b.n	25fe <__divsi3+0x42>
    25fc:	0a09      	lsrs	r1, r1, #8
    25fe:	0bc3      	lsrs	r3, r0, #15
    2600:	428b      	cmp	r3, r1
    2602:	d301      	bcc.n	2608 <__divsi3+0x4c>
    2604:	03cb      	lsls	r3, r1, #15
    2606:	1ac0      	subs	r0, r0, r3
    2608:	4152      	adcs	r2, r2
    260a:	0b83      	lsrs	r3, r0, #14
    260c:	428b      	cmp	r3, r1
    260e:	d301      	bcc.n	2614 <__divsi3+0x58>
    2610:	038b      	lsls	r3, r1, #14
    2612:	1ac0      	subs	r0, r0, r3
    2614:	4152      	adcs	r2, r2
    2616:	0b43      	lsrs	r3, r0, #13
    2618:	428b      	cmp	r3, r1
    261a:	d301      	bcc.n	2620 <__divsi3+0x64>
    261c:	034b      	lsls	r3, r1, #13
    261e:	1ac0      	subs	r0, r0, r3
    2620:	4152      	adcs	r2, r2
    2622:	0b03      	lsrs	r3, r0, #12
    2624:	428b      	cmp	r3, r1
    2626:	d301      	bcc.n	262c <__divsi3+0x70>
    2628:	030b      	lsls	r3, r1, #12
    262a:	1ac0      	subs	r0, r0, r3
    262c:	4152      	adcs	r2, r2
    262e:	0ac3      	lsrs	r3, r0, #11
    2630:	428b      	cmp	r3, r1
    2632:	d301      	bcc.n	2638 <__divsi3+0x7c>
    2634:	02cb      	lsls	r3, r1, #11
    2636:	1ac0      	subs	r0, r0, r3
    2638:	4152      	adcs	r2, r2
    263a:	0a83      	lsrs	r3, r0, #10
    263c:	428b      	cmp	r3, r1
    263e:	d301      	bcc.n	2644 <__divsi3+0x88>
    2640:	028b      	lsls	r3, r1, #10
    2642:	1ac0      	subs	r0, r0, r3
    2644:	4152      	adcs	r2, r2
    2646:	0a43      	lsrs	r3, r0, #9
    2648:	428b      	cmp	r3, r1
    264a:	d301      	bcc.n	2650 <__divsi3+0x94>
    264c:	024b      	lsls	r3, r1, #9
    264e:	1ac0      	subs	r0, r0, r3
    2650:	4152      	adcs	r2, r2
    2652:	0a03      	lsrs	r3, r0, #8
    2654:	428b      	cmp	r3, r1
    2656:	d301      	bcc.n	265c <__divsi3+0xa0>
    2658:	020b      	lsls	r3, r1, #8
    265a:	1ac0      	subs	r0, r0, r3
    265c:	4152      	adcs	r2, r2
    265e:	d2cd      	bcs.n	25fc <__divsi3+0x40>
    2660:	09c3      	lsrs	r3, r0, #7
    2662:	428b      	cmp	r3, r1
    2664:	d301      	bcc.n	266a <__divsi3+0xae>
    2666:	01cb      	lsls	r3, r1, #7
    2668:	1ac0      	subs	r0, r0, r3
    266a:	4152      	adcs	r2, r2
    266c:	0983      	lsrs	r3, r0, #6
    266e:	428b      	cmp	r3, r1
    2670:	d301      	bcc.n	2676 <__divsi3+0xba>
    2672:	018b      	lsls	r3, r1, #6
    2674:	1ac0      	subs	r0, r0, r3
    2676:	4152      	adcs	r2, r2
    2678:	0943      	lsrs	r3, r0, #5
    267a:	428b      	cmp	r3, r1
    267c:	d301      	bcc.n	2682 <__divsi3+0xc6>
    267e:	014b      	lsls	r3, r1, #5
    2680:	1ac0      	subs	r0, r0, r3
    2682:	4152      	adcs	r2, r2
    2684:	0903      	lsrs	r3, r0, #4
    2686:	428b      	cmp	r3, r1
    2688:	d301      	bcc.n	268e <__divsi3+0xd2>
    268a:	010b      	lsls	r3, r1, #4
    268c:	1ac0      	subs	r0, r0, r3
    268e:	4152      	adcs	r2, r2
    2690:	08c3      	lsrs	r3, r0, #3
    2692:	428b      	cmp	r3, r1
    2694:	d301      	bcc.n	269a <__divsi3+0xde>
    2696:	00cb      	lsls	r3, r1, #3
    2698:	1ac0      	subs	r0, r0, r3
    269a:	4152      	adcs	r2, r2
    269c:	0883      	lsrs	r3, r0, #2
    269e:	428b      	cmp	r3, r1
    26a0:	d301      	bcc.n	26a6 <__divsi3+0xea>
    26a2:	008b      	lsls	r3, r1, #2
    26a4:	1ac0      	subs	r0, r0, r3
    26a6:	4152      	adcs	r2, r2
    26a8:	0843      	lsrs	r3, r0, #1
    26aa:	428b      	cmp	r3, r1
    26ac:	d301      	bcc.n	26b2 <__divsi3+0xf6>
    26ae:	004b      	lsls	r3, r1, #1
    26b0:	1ac0      	subs	r0, r0, r3
    26b2:	4152      	adcs	r2, r2
    26b4:	1a41      	subs	r1, r0, r1
    26b6:	d200      	bcs.n	26ba <__divsi3+0xfe>
    26b8:	4601      	mov	r1, r0
    26ba:	4152      	adcs	r2, r2
    26bc:	4610      	mov	r0, r2
    26be:	4770      	bx	lr
    26c0:	e05d      	b.n	277e <__divsi3+0x1c2>
    26c2:	0fca      	lsrs	r2, r1, #31
    26c4:	d000      	beq.n	26c8 <__divsi3+0x10c>
    26c6:	4249      	negs	r1, r1
    26c8:	1003      	asrs	r3, r0, #32
    26ca:	d300      	bcc.n	26ce <__divsi3+0x112>
    26cc:	4240      	negs	r0, r0
    26ce:	4053      	eors	r3, r2
    26d0:	2200      	movs	r2, #0
    26d2:	469c      	mov	ip, r3
    26d4:	0903      	lsrs	r3, r0, #4
    26d6:	428b      	cmp	r3, r1
    26d8:	d32d      	bcc.n	2736 <__divsi3+0x17a>
    26da:	0a03      	lsrs	r3, r0, #8
    26dc:	428b      	cmp	r3, r1
    26de:	d312      	bcc.n	2706 <__divsi3+0x14a>
    26e0:	22fc      	movs	r2, #252	; 0xfc
    26e2:	0189      	lsls	r1, r1, #6
    26e4:	ba12      	rev	r2, r2
    26e6:	0a03      	lsrs	r3, r0, #8
    26e8:	428b      	cmp	r3, r1
    26ea:	d30c      	bcc.n	2706 <__divsi3+0x14a>
    26ec:	0189      	lsls	r1, r1, #6
    26ee:	1192      	asrs	r2, r2, #6
    26f0:	428b      	cmp	r3, r1
    26f2:	d308      	bcc.n	2706 <__divsi3+0x14a>
    26f4:	0189      	lsls	r1, r1, #6
    26f6:	1192      	asrs	r2, r2, #6
    26f8:	428b      	cmp	r3, r1
    26fa:	d304      	bcc.n	2706 <__divsi3+0x14a>
    26fc:	0189      	lsls	r1, r1, #6
    26fe:	d03a      	beq.n	2776 <__divsi3+0x1ba>
    2700:	1192      	asrs	r2, r2, #6
    2702:	e000      	b.n	2706 <__divsi3+0x14a>
    2704:	0989      	lsrs	r1, r1, #6
    2706:	09c3      	lsrs	r3, r0, #7
    2708:	428b      	cmp	r3, r1
    270a:	d301      	bcc.n	2710 <__divsi3+0x154>
    270c:	01cb      	lsls	r3, r1, #7
    270e:	1ac0      	subs	r0, r0, r3
    2710:	4152      	adcs	r2, r2
    2712:	0983      	lsrs	r3, r0, #6
    2714:	428b      	cmp	r3, r1
    2716:	d301      	bcc.n	271c <__divsi3+0x160>
    2718:	018b      	lsls	r3, r1, #6
    271a:	1ac0      	subs	r0, r0, r3
    271c:	4152      	adcs	r2, r2
    271e:	0943      	lsrs	r3, r0, #5
    2720:	428b      	cmp	r3, r1
    2722:	d301      	bcc.n	2728 <__divsi3+0x16c>
    2724:	014b      	lsls	r3, r1, #5
    2726:	1ac0      	subs	r0, r0, r3
    2728:	4152      	adcs	r2, r2
    272a:	0903      	lsrs	r3, r0, #4
    272c:	428b      	cmp	r3, r1
    272e:	d301      	bcc.n	2734 <__divsi3+0x178>
    2730:	010b      	lsls	r3, r1, #4
    2732:	1ac0      	subs	r0, r0, r3
    2734:	4152      	adcs	r2, r2
    2736:	08c3      	lsrs	r3, r0, #3
    2738:	428b      	cmp	r3, r1
    273a:	d301      	bcc.n	2740 <__divsi3+0x184>
    273c:	00cb      	lsls	r3, r1, #3
    273e:	1ac0      	subs	r0, r0, r3
    2740:	4152      	adcs	r2, r2
    2742:	0883      	lsrs	r3, r0, #2
    2744:	428b      	cmp	r3, r1
    2746:	d301      	bcc.n	274c <__divsi3+0x190>
    2748:	008b      	lsls	r3, r1, #2
    274a:	1ac0      	subs	r0, r0, r3
    274c:	4152      	adcs	r2, r2
    274e:	d2d9      	bcs.n	2704 <__divsi3+0x148>
    2750:	0843      	lsrs	r3, r0, #1
    2752:	428b      	cmp	r3, r1
    2754:	d301      	bcc.n	275a <__divsi3+0x19e>
    2756:	004b      	lsls	r3, r1, #1
    2758:	1ac0      	subs	r0, r0, r3
    275a:	4152      	adcs	r2, r2
    275c:	1a41      	subs	r1, r0, r1
    275e:	d200      	bcs.n	2762 <__divsi3+0x1a6>
    2760:	4601      	mov	r1, r0
    2762:	4663      	mov	r3, ip
    2764:	4152      	adcs	r2, r2
    2766:	105b      	asrs	r3, r3, #1
    2768:	4610      	mov	r0, r2
    276a:	d301      	bcc.n	2770 <__divsi3+0x1b4>
    276c:	4240      	negs	r0, r0
    276e:	2b00      	cmp	r3, #0
    2770:	d500      	bpl.n	2774 <__divsi3+0x1b8>
    2772:	4249      	negs	r1, r1
    2774:	4770      	bx	lr
    2776:	4663      	mov	r3, ip
    2778:	105b      	asrs	r3, r3, #1
    277a:	d300      	bcc.n	277e <__divsi3+0x1c2>
    277c:	4240      	negs	r0, r0
    277e:	b501      	push	{r0, lr}
    2780:	2000      	movs	r0, #0
    2782:	f000 f805 	bl	2790 <__aeabi_idiv0>
    2786:	bd02      	pop	{r1, pc}

00002788 <__aeabi_idivmod>:
    2788:	2900      	cmp	r1, #0
    278a:	d0f8      	beq.n	277e <__divsi3+0x1c2>
    278c:	e716      	b.n	25bc <__divsi3>
    278e:	4770      	bx	lr

00002790 <__aeabi_idiv0>:
    2790:	4770      	bx	lr
    2792:	46c0      	nop			; (mov r8, r8)

00002794 <__aeabi_lmul>:
    2794:	b5f0      	push	{r4, r5, r6, r7, lr}
    2796:	46ce      	mov	lr, r9
    2798:	4647      	mov	r7, r8
    279a:	0415      	lsls	r5, r2, #16
    279c:	0c2d      	lsrs	r5, r5, #16
    279e:	002e      	movs	r6, r5
    27a0:	b580      	push	{r7, lr}
    27a2:	0407      	lsls	r7, r0, #16
    27a4:	0c14      	lsrs	r4, r2, #16
    27a6:	0c3f      	lsrs	r7, r7, #16
    27a8:	4699      	mov	r9, r3
    27aa:	0c03      	lsrs	r3, r0, #16
    27ac:	437e      	muls	r6, r7
    27ae:	435d      	muls	r5, r3
    27b0:	4367      	muls	r7, r4
    27b2:	4363      	muls	r3, r4
    27b4:	197f      	adds	r7, r7, r5
    27b6:	0c34      	lsrs	r4, r6, #16
    27b8:	19e4      	adds	r4, r4, r7
    27ba:	469c      	mov	ip, r3
    27bc:	42a5      	cmp	r5, r4
    27be:	d903      	bls.n	27c8 <__aeabi_lmul+0x34>
    27c0:	2380      	movs	r3, #128	; 0x80
    27c2:	025b      	lsls	r3, r3, #9
    27c4:	4698      	mov	r8, r3
    27c6:	44c4      	add	ip, r8
    27c8:	464b      	mov	r3, r9
    27ca:	4351      	muls	r1, r2
    27cc:	4343      	muls	r3, r0
    27ce:	0436      	lsls	r6, r6, #16
    27d0:	0c36      	lsrs	r6, r6, #16
    27d2:	0c25      	lsrs	r5, r4, #16
    27d4:	0424      	lsls	r4, r4, #16
    27d6:	4465      	add	r5, ip
    27d8:	19a4      	adds	r4, r4, r6
    27da:	1859      	adds	r1, r3, r1
    27dc:	1949      	adds	r1, r1, r5
    27de:	0020      	movs	r0, r4
    27e0:	bc0c      	pop	{r2, r3}
    27e2:	4690      	mov	r8, r2
    27e4:	4699      	mov	r9, r3
    27e6:	bdf0      	pop	{r4, r5, r6, r7, pc}

000027e8 <__libc_init_array>:
    27e8:	b570      	push	{r4, r5, r6, lr}
    27ea:	2600      	movs	r6, #0
    27ec:	4d0c      	ldr	r5, [pc, #48]	; (2820 <__libc_init_array+0x38>)
    27ee:	4c0d      	ldr	r4, [pc, #52]	; (2824 <__libc_init_array+0x3c>)
    27f0:	1b64      	subs	r4, r4, r5
    27f2:	10a4      	asrs	r4, r4, #2
    27f4:	42a6      	cmp	r6, r4
    27f6:	d109      	bne.n	280c <__libc_init_array+0x24>
    27f8:	2600      	movs	r6, #0
    27fa:	f000 f947 	bl	2a8c <_init>
    27fe:	4d0a      	ldr	r5, [pc, #40]	; (2828 <__libc_init_array+0x40>)
    2800:	4c0a      	ldr	r4, [pc, #40]	; (282c <__libc_init_array+0x44>)
    2802:	1b64      	subs	r4, r4, r5
    2804:	10a4      	asrs	r4, r4, #2
    2806:	42a6      	cmp	r6, r4
    2808:	d105      	bne.n	2816 <__libc_init_array+0x2e>
    280a:	bd70      	pop	{r4, r5, r6, pc}
    280c:	00b3      	lsls	r3, r6, #2
    280e:	58eb      	ldr	r3, [r5, r3]
    2810:	4798      	blx	r3
    2812:	3601      	adds	r6, #1
    2814:	e7ee      	b.n	27f4 <__libc_init_array+0xc>
    2816:	00b3      	lsls	r3, r6, #2
    2818:	58eb      	ldr	r3, [r5, r3]
    281a:	4798      	blx	r3
    281c:	3601      	adds	r6, #1
    281e:	e7f2      	b.n	2806 <__libc_init_array+0x1e>
    2820:	00002a98 	.word	0x00002a98
    2824:	00002a98 	.word	0x00002a98
    2828:	00002a98 	.word	0x00002a98
    282c:	00002a9c 	.word	0x00002a9c

00002830 <memcpy>:
    2830:	2300      	movs	r3, #0
    2832:	b510      	push	{r4, lr}
    2834:	429a      	cmp	r2, r3
    2836:	d100      	bne.n	283a <memcpy+0xa>
    2838:	bd10      	pop	{r4, pc}
    283a:	5ccc      	ldrb	r4, [r1, r3]
    283c:	54c4      	strb	r4, [r0, r3]
    283e:	3301      	adds	r3, #1
    2840:	e7f8      	b.n	2834 <memcpy+0x4>

00002842 <memset>:
    2842:	0003      	movs	r3, r0
    2844:	1882      	adds	r2, r0, r2
    2846:	4293      	cmp	r3, r2
    2848:	d100      	bne.n	284c <memset+0xa>
    284a:	4770      	bx	lr
    284c:	7019      	strb	r1, [r3, #0]
    284e:	3301      	adds	r3, #1
    2850:	e7f9      	b.n	2846 <memset+0x4>
    2852:	0000      	movs	r0, r0
    2854:	000003ac 	.word	0x000003ac
    2858:	0000060a 	.word	0x0000060a
    285c:	0000060a 	.word	0x0000060a
    2860:	0000060a 	.word	0x0000060a
    2864:	0000060a 	.word	0x0000060a
    2868:	0000060a 	.word	0x0000060a
    286c:	0000060a 	.word	0x0000060a
    2870:	0000060a 	.word	0x0000060a
    2874:	0000060a 	.word	0x0000060a
    2878:	0000060a 	.word	0x0000060a
    287c:	0000060a 	.word	0x0000060a
    2880:	0000060a 	.word	0x0000060a
    2884:	0000060a 	.word	0x0000060a
    2888:	0000060a 	.word	0x0000060a
    288c:	0000060a 	.word	0x0000060a
    2890:	0000060a 	.word	0x0000060a
    2894:	0000038c 	.word	0x0000038c
    2898:	0000060a 	.word	0x0000060a
    289c:	0000060a 	.word	0x0000060a
    28a0:	0000060a 	.word	0x0000060a
    28a4:	0000060a 	.word	0x0000060a
    28a8:	0000060a 	.word	0x0000060a
    28ac:	0000060a 	.word	0x0000060a
    28b0:	0000060a 	.word	0x0000060a
    28b4:	0000060a 	.word	0x0000060a
    28b8:	0000060a 	.word	0x0000060a
    28bc:	0000060a 	.word	0x0000060a
    28c0:	0000060a 	.word	0x0000060a
    28c4:	0000060a 	.word	0x0000060a
    28c8:	0000060a 	.word	0x0000060a
    28cc:	0000060a 	.word	0x0000060a
    28d0:	0000060a 	.word	0x0000060a
    28d4:	000003a4 	.word	0x000003a4
    28d8:	0000060a 	.word	0x0000060a
    28dc:	0000060a 	.word	0x0000060a
    28e0:	0000060a 	.word	0x0000060a
    28e4:	0000060a 	.word	0x0000060a
    28e8:	0000060a 	.word	0x0000060a
    28ec:	0000060a 	.word	0x0000060a
    28f0:	0000060a 	.word	0x0000060a
    28f4:	0000060a 	.word	0x0000060a
    28f8:	0000060a 	.word	0x0000060a
    28fc:	0000060a 	.word	0x0000060a
    2900:	0000060a 	.word	0x0000060a
    2904:	0000060a 	.word	0x0000060a
    2908:	0000060a 	.word	0x0000060a
    290c:	0000060a 	.word	0x0000060a
    2910:	0000060a 	.word	0x0000060a
    2914:	0000039c 	.word	0x0000039c
    2918:	000003b4 	.word	0x000003b4
    291c:	0000036c 	.word	0x0000036c
    2920:	0000037c 	.word	0x0000037c
    2924:	00000374 	.word	0x00000374
    2928:	00000002 	.word	0x00000002
    292c:	00000003 	.word	0x00000003
    2930:	00000028 	.word	0x00000028
    2934:	00000029 	.word	0x00000029
    2938:	00000004 	.word	0x00000004
    293c:	00000005 	.word	0x00000005
    2940:	00000006 	.word	0x00000006
    2944:	00000007 	.word	0x00000007
    2948:	00000020 	.word	0x00000020
    294c:	00000021 	.word	0x00000021
    2950:	00000022 	.word	0x00000022
    2954:	00000023 	.word	0x00000023
    2958:	00000024 	.word	0x00000024
    295c:	00000025 	.word	0x00000025
    2960:	00000026 	.word	0x00000026
    2964:	00000027 	.word	0x00000027
    2968:	00000008 	.word	0x00000008
    296c:	00000009 	.word	0x00000009
    2970:	0000000a 	.word	0x0000000a
    2974:	0000000b 	.word	0x0000000b
    2978:	42000800 	.word	0x42000800
    297c:	42000c00 	.word	0x42000c00
    2980:	42001000 	.word	0x42001000
    2984:	42001400 	.word	0x42001400
    2988:	42001800 	.word	0x42001800
    298c:	42001c00 	.word	0x42001c00
    2990:	0a206425 	.word	0x0a206425
    2994:	0000000d 	.word	0x0000000d
    2998:	00001718 	.word	0x00001718
    299c:	00001710 	.word	0x00001710
    29a0:	000016e4 	.word	0x000016e4
    29a4:	000016e4 	.word	0x000016e4
    29a8:	000016e4 	.word	0x000016e4
    29ac:	000016e4 	.word	0x000016e4
    29b0:	00001728 	.word	0x00001728
    29b4:	000016e4 	.word	0x000016e4
    29b8:	000016e4 	.word	0x000016e4
    29bc:	000016e4 	.word	0x000016e4
    29c0:	000016e4 	.word	0x000016e4
    29c4:	000016e4 	.word	0x000016e4
    29c8:	000016e4 	.word	0x000016e4
    29cc:	000016e4 	.word	0x000016e4
    29d0:	000016e4 	.word	0x000016e4
    29d4:	000016e4 	.word	0x000016e4
    29d8:	00001720 	.word	0x00001720
    29dc:	000016e4 	.word	0x000016e4
    29e0:	00001708 	.word	0x00001708
    29e4:	00001780 	.word	0x00001780
    29e8:	00001780 	.word	0x00001780
    29ec:	00001792 	.word	0x00001792
    29f0:	00001792 	.word	0x00001792
    29f4:	00001792 	.word	0x00001792
    29f8:	00001792 	.word	0x00001792
    29fc:	00001780 	.word	0x00001780
    2a00:	00001792 	.word	0x00001792
    2a04:	00001792 	.word	0x00001792
    2a08:	00001792 	.word	0x00001792
    2a0c:	00001792 	.word	0x00001792
    2a10:	00001792 	.word	0x00001792
    2a14:	00001792 	.word	0x00001792
    2a18:	00001792 	.word	0x00001792
    2a1c:	00001792 	.word	0x00001792
    2a20:	00001792 	.word	0x00001792
    2a24:	00001780 	.word	0x00001780
    2a28:	00001792 	.word	0x00001792
    2a2c:	00001780 	.word	0x00001780
    2a30:	33323130 	.word	0x33323130
    2a34:	37363534 	.word	0x37363534
    2a38:	62613938 	.word	0x62613938
    2a3c:	66656463 	.word	0x66656463
    2a40:	00000000 	.word	0x00000000
    2a44:	00001b9a 	.word	0x00001b9a
    2a48:	00001b96 	.word	0x00001b96
    2a4c:	00001b96 	.word	0x00001b96
    2a50:	00001be6 	.word	0x00001be6
    2a54:	00001be6 	.word	0x00001be6
    2a58:	00001bae 	.word	0x00001bae
    2a5c:	00001ba0 	.word	0x00001ba0
    2a60:	00001bb4 	.word	0x00001bb4
    2a64:	00001c6c 	.word	0x00001c6c
    2a68:	00001c4c 	.word	0x00001c4c
    2a6c:	00001c4c 	.word	0x00001c4c
    2a70:	00001cbc 	.word	0x00001cbc
    2a74:	00001c5e 	.word	0x00001c5e
    2a78:	00001c7a 	.word	0x00001c7a
    2a7c:	00001c50 	.word	0x00001c50
    2a80:	00001c88 	.word	0x00001c88
    2a84:	74696157 	.word	0x74696157
    2a88:	00000000 	.word	0x00000000

00002a8c <_init>:
    2a8c:	b5f8      	push	{r3, r4, r5, r6, r7, lr}
    2a8e:	46c0      	nop			; (mov r8, r8)
    2a90:	bcf8      	pop	{r3, r4, r5, r6, r7}
    2a92:	bc08      	pop	{r3}
    2a94:	469e      	mov	lr, r3
    2a96:	4770      	bx	lr

00002a98 <__init_array_start>:
    2a98:	000000cd 	.word	0x000000cd

00002a9c <_fini>:
    2a9c:	b5f8      	push	{r3, r4, r5, r6, r7, lr}
    2a9e:	46c0      	nop			; (mov r8, r8)
    2aa0:	bcf8      	pop	{r3, r4, r5, r6, r7}
    2aa2:	bc08      	pop	{r3}
    2aa4:	469e      	mov	lr, r3
    2aa6:	4770      	bx	lr

00002aa8 <__fini_array_start>:
    2aa8:	000000a5 	.word	0x000000a5
